ARM GAS  C:\Users\SRY19_~1\AppData\Local\Temp\ccOeh7I2.s 			page 1


   1              		.cpu cortex-m3
   2              		.arch armv7-m
   3              		.fpu softvfp
   4              		.eabi_attribute 20, 1
   5              		.eabi_attribute 21, 1
   6              		.eabi_attribute 23, 3
   7              		.eabi_attribute 24, 1
   8              		.eabi_attribute 25, 1
   9              		.eabi_attribute 26, 1
  10              		.eabi_attribute 30, 1
  11              		.eabi_attribute 34, 1
  12              		.eabi_attribute 18, 4
  13              		.file	"stm32f1xx_hal_pwr.c"
  14              		.text
  15              	.Ltext0:
  16              		.cfi_sections	.debug_frame
  17              		.section	.text.PWR_OverloadWfe,"ax",%progbits
  18              		.align	1
  19              		.syntax unified
  20              		.thumb
  21              		.thumb_func
  23              	PWR_OverloadWfe:
  24              	.LFB65:
  25              		.file 1 "../../../auto/rev0/Drivers/STM32F1xx_HAL_Driver/Src/stm32f1xx_hal_pwr.c"
   1:../../../auto/rev0/Drivers/STM32F1xx_HAL_Driver/Src/stm32f1xx_hal_pwr.c **** /**
   2:../../../auto/rev0/Drivers/STM32F1xx_HAL_Driver/Src/stm32f1xx_hal_pwr.c ****   ******************************************************************************
   3:../../../auto/rev0/Drivers/STM32F1xx_HAL_Driver/Src/stm32f1xx_hal_pwr.c ****   * @file    stm32f1xx_hal_pwr.c
   4:../../../auto/rev0/Drivers/STM32F1xx_HAL_Driver/Src/stm32f1xx_hal_pwr.c ****   * @author  MCD Application Team
   5:../../../auto/rev0/Drivers/STM32F1xx_HAL_Driver/Src/stm32f1xx_hal_pwr.c ****   * @brief   PWR HAL module driver.
   6:../../../auto/rev0/Drivers/STM32F1xx_HAL_Driver/Src/stm32f1xx_hal_pwr.c ****   *
   7:../../../auto/rev0/Drivers/STM32F1xx_HAL_Driver/Src/stm32f1xx_hal_pwr.c ****   *          This file provides firmware functions to manage the following
   8:../../../auto/rev0/Drivers/STM32F1xx_HAL_Driver/Src/stm32f1xx_hal_pwr.c ****   *          functionalities of the Power Controller (PWR) peripheral:
   9:../../../auto/rev0/Drivers/STM32F1xx_HAL_Driver/Src/stm32f1xx_hal_pwr.c ****   *           + Initialization/de-initialization functions
  10:../../../auto/rev0/Drivers/STM32F1xx_HAL_Driver/Src/stm32f1xx_hal_pwr.c ****   *           + Peripheral Control functions 
  11:../../../auto/rev0/Drivers/STM32F1xx_HAL_Driver/Src/stm32f1xx_hal_pwr.c ****   *
  12:../../../auto/rev0/Drivers/STM32F1xx_HAL_Driver/Src/stm32f1xx_hal_pwr.c ****   ******************************************************************************
  13:../../../auto/rev0/Drivers/STM32F1xx_HAL_Driver/Src/stm32f1xx_hal_pwr.c ****   * @attention
  14:../../../auto/rev0/Drivers/STM32F1xx_HAL_Driver/Src/stm32f1xx_hal_pwr.c ****   *
  15:../../../auto/rev0/Drivers/STM32F1xx_HAL_Driver/Src/stm32f1xx_hal_pwr.c ****   * Copyright (c) 2016 STMicroelectronics.
  16:../../../auto/rev0/Drivers/STM32F1xx_HAL_Driver/Src/stm32f1xx_hal_pwr.c ****   * All rights reserved.
  17:../../../auto/rev0/Drivers/STM32F1xx_HAL_Driver/Src/stm32f1xx_hal_pwr.c ****   *
  18:../../../auto/rev0/Drivers/STM32F1xx_HAL_Driver/Src/stm32f1xx_hal_pwr.c ****   * This software is licensed under terms that can be found in the LICENSE file
  19:../../../auto/rev0/Drivers/STM32F1xx_HAL_Driver/Src/stm32f1xx_hal_pwr.c ****   * in the root directory of this software component.
  20:../../../auto/rev0/Drivers/STM32F1xx_HAL_Driver/Src/stm32f1xx_hal_pwr.c ****   * If no LICENSE file comes with this software, it is provided AS-IS.
  21:../../../auto/rev0/Drivers/STM32F1xx_HAL_Driver/Src/stm32f1xx_hal_pwr.c ****   *
  22:../../../auto/rev0/Drivers/STM32F1xx_HAL_Driver/Src/stm32f1xx_hal_pwr.c ****   ******************************************************************************
  23:../../../auto/rev0/Drivers/STM32F1xx_HAL_Driver/Src/stm32f1xx_hal_pwr.c ****   */
  24:../../../auto/rev0/Drivers/STM32F1xx_HAL_Driver/Src/stm32f1xx_hal_pwr.c **** 
  25:../../../auto/rev0/Drivers/STM32F1xx_HAL_Driver/Src/stm32f1xx_hal_pwr.c **** /* Includes ------------------------------------------------------------------*/
  26:../../../auto/rev0/Drivers/STM32F1xx_HAL_Driver/Src/stm32f1xx_hal_pwr.c **** #include "stm32f1xx_hal.h"
  27:../../../auto/rev0/Drivers/STM32F1xx_HAL_Driver/Src/stm32f1xx_hal_pwr.c **** 
  28:../../../auto/rev0/Drivers/STM32F1xx_HAL_Driver/Src/stm32f1xx_hal_pwr.c **** /** @addtogroup STM32F1xx_HAL_Driver
  29:../../../auto/rev0/Drivers/STM32F1xx_HAL_Driver/Src/stm32f1xx_hal_pwr.c ****   * @{
  30:../../../auto/rev0/Drivers/STM32F1xx_HAL_Driver/Src/stm32f1xx_hal_pwr.c ****   */
  31:../../../auto/rev0/Drivers/STM32F1xx_HAL_Driver/Src/stm32f1xx_hal_pwr.c **** 
  32:../../../auto/rev0/Drivers/STM32F1xx_HAL_Driver/Src/stm32f1xx_hal_pwr.c **** /** @defgroup PWR PWR
  33:../../../auto/rev0/Drivers/STM32F1xx_HAL_Driver/Src/stm32f1xx_hal_pwr.c ****   * @brief    PWR HAL module driver
ARM GAS  C:\Users\SRY19_~1\AppData\Local\Temp\ccOeh7I2.s 			page 2


  34:../../../auto/rev0/Drivers/STM32F1xx_HAL_Driver/Src/stm32f1xx_hal_pwr.c ****   * @{
  35:../../../auto/rev0/Drivers/STM32F1xx_HAL_Driver/Src/stm32f1xx_hal_pwr.c ****   */
  36:../../../auto/rev0/Drivers/STM32F1xx_HAL_Driver/Src/stm32f1xx_hal_pwr.c **** 
  37:../../../auto/rev0/Drivers/STM32F1xx_HAL_Driver/Src/stm32f1xx_hal_pwr.c **** #ifdef HAL_PWR_MODULE_ENABLED
  38:../../../auto/rev0/Drivers/STM32F1xx_HAL_Driver/Src/stm32f1xx_hal_pwr.c **** 
  39:../../../auto/rev0/Drivers/STM32F1xx_HAL_Driver/Src/stm32f1xx_hal_pwr.c **** /* Private typedef -----------------------------------------------------------*/
  40:../../../auto/rev0/Drivers/STM32F1xx_HAL_Driver/Src/stm32f1xx_hal_pwr.c **** /* Private define ------------------------------------------------------------*/
  41:../../../auto/rev0/Drivers/STM32F1xx_HAL_Driver/Src/stm32f1xx_hal_pwr.c **** 
  42:../../../auto/rev0/Drivers/STM32F1xx_HAL_Driver/Src/stm32f1xx_hal_pwr.c **** /** @defgroup PWR_Private_Constants PWR Private Constants
  43:../../../auto/rev0/Drivers/STM32F1xx_HAL_Driver/Src/stm32f1xx_hal_pwr.c ****   * @{
  44:../../../auto/rev0/Drivers/STM32F1xx_HAL_Driver/Src/stm32f1xx_hal_pwr.c ****   */
  45:../../../auto/rev0/Drivers/STM32F1xx_HAL_Driver/Src/stm32f1xx_hal_pwr.c ****   
  46:../../../auto/rev0/Drivers/STM32F1xx_HAL_Driver/Src/stm32f1xx_hal_pwr.c **** /** @defgroup PWR_PVD_Mode_Mask PWR PVD Mode Mask
  47:../../../auto/rev0/Drivers/STM32F1xx_HAL_Driver/Src/stm32f1xx_hal_pwr.c ****   * @{
  48:../../../auto/rev0/Drivers/STM32F1xx_HAL_Driver/Src/stm32f1xx_hal_pwr.c ****   */ 
  49:../../../auto/rev0/Drivers/STM32F1xx_HAL_Driver/Src/stm32f1xx_hal_pwr.c **** #define PVD_MODE_IT               0x00010000U
  50:../../../auto/rev0/Drivers/STM32F1xx_HAL_Driver/Src/stm32f1xx_hal_pwr.c **** #define PVD_MODE_EVT              0x00020000U
  51:../../../auto/rev0/Drivers/STM32F1xx_HAL_Driver/Src/stm32f1xx_hal_pwr.c **** #define PVD_RISING_EDGE           0x00000001U
  52:../../../auto/rev0/Drivers/STM32F1xx_HAL_Driver/Src/stm32f1xx_hal_pwr.c **** #define PVD_FALLING_EDGE          0x00000002U
  53:../../../auto/rev0/Drivers/STM32F1xx_HAL_Driver/Src/stm32f1xx_hal_pwr.c **** /**
  54:../../../auto/rev0/Drivers/STM32F1xx_HAL_Driver/Src/stm32f1xx_hal_pwr.c ****   * @}
  55:../../../auto/rev0/Drivers/STM32F1xx_HAL_Driver/Src/stm32f1xx_hal_pwr.c ****   */
  56:../../../auto/rev0/Drivers/STM32F1xx_HAL_Driver/Src/stm32f1xx_hal_pwr.c **** 
  57:../../../auto/rev0/Drivers/STM32F1xx_HAL_Driver/Src/stm32f1xx_hal_pwr.c **** 
  58:../../../auto/rev0/Drivers/STM32F1xx_HAL_Driver/Src/stm32f1xx_hal_pwr.c **** /** @defgroup PWR_register_alias_address PWR Register alias address
  59:../../../auto/rev0/Drivers/STM32F1xx_HAL_Driver/Src/stm32f1xx_hal_pwr.c ****   * @{
  60:../../../auto/rev0/Drivers/STM32F1xx_HAL_Driver/Src/stm32f1xx_hal_pwr.c ****   */ 
  61:../../../auto/rev0/Drivers/STM32F1xx_HAL_Driver/Src/stm32f1xx_hal_pwr.c **** /* ------------- PWR registers bit address in the alias region ---------------*/
  62:../../../auto/rev0/Drivers/STM32F1xx_HAL_Driver/Src/stm32f1xx_hal_pwr.c **** #define PWR_OFFSET               (PWR_BASE - PERIPH_BASE)
  63:../../../auto/rev0/Drivers/STM32F1xx_HAL_Driver/Src/stm32f1xx_hal_pwr.c **** #define PWR_CR_OFFSET            0x00U
  64:../../../auto/rev0/Drivers/STM32F1xx_HAL_Driver/Src/stm32f1xx_hal_pwr.c **** #define PWR_CSR_OFFSET           0x04U
  65:../../../auto/rev0/Drivers/STM32F1xx_HAL_Driver/Src/stm32f1xx_hal_pwr.c **** #define PWR_CR_OFFSET_BB         (PWR_OFFSET + PWR_CR_OFFSET)
  66:../../../auto/rev0/Drivers/STM32F1xx_HAL_Driver/Src/stm32f1xx_hal_pwr.c **** #define PWR_CSR_OFFSET_BB        (PWR_OFFSET + PWR_CSR_OFFSET)
  67:../../../auto/rev0/Drivers/STM32F1xx_HAL_Driver/Src/stm32f1xx_hal_pwr.c **** /**
  68:../../../auto/rev0/Drivers/STM32F1xx_HAL_Driver/Src/stm32f1xx_hal_pwr.c ****   * @}
  69:../../../auto/rev0/Drivers/STM32F1xx_HAL_Driver/Src/stm32f1xx_hal_pwr.c ****   */
  70:../../../auto/rev0/Drivers/STM32F1xx_HAL_Driver/Src/stm32f1xx_hal_pwr.c ****    
  71:../../../auto/rev0/Drivers/STM32F1xx_HAL_Driver/Src/stm32f1xx_hal_pwr.c **** /** @defgroup PWR_CR_register_alias PWR CR Register alias address
  72:../../../auto/rev0/Drivers/STM32F1xx_HAL_Driver/Src/stm32f1xx_hal_pwr.c ****   * @{
  73:../../../auto/rev0/Drivers/STM32F1xx_HAL_Driver/Src/stm32f1xx_hal_pwr.c ****   */  
  74:../../../auto/rev0/Drivers/STM32F1xx_HAL_Driver/Src/stm32f1xx_hal_pwr.c **** /* --- CR Register ---*/
  75:../../../auto/rev0/Drivers/STM32F1xx_HAL_Driver/Src/stm32f1xx_hal_pwr.c **** /* Alias word address of LPSDSR bit */
  76:../../../auto/rev0/Drivers/STM32F1xx_HAL_Driver/Src/stm32f1xx_hal_pwr.c **** #define LPSDSR_BIT_NUMBER        PWR_CR_LPDS_Pos
  77:../../../auto/rev0/Drivers/STM32F1xx_HAL_Driver/Src/stm32f1xx_hal_pwr.c **** #define CR_LPSDSR_BB             ((uint32_t)(PERIPH_BB_BASE + (PWR_CR_OFFSET_BB * 32U) + (LPSDSR_BI
  78:../../../auto/rev0/Drivers/STM32F1xx_HAL_Driver/Src/stm32f1xx_hal_pwr.c **** 
  79:../../../auto/rev0/Drivers/STM32F1xx_HAL_Driver/Src/stm32f1xx_hal_pwr.c **** /* Alias word address of DBP bit */
  80:../../../auto/rev0/Drivers/STM32F1xx_HAL_Driver/Src/stm32f1xx_hal_pwr.c **** #define DBP_BIT_NUMBER            PWR_CR_DBP_Pos
  81:../../../auto/rev0/Drivers/STM32F1xx_HAL_Driver/Src/stm32f1xx_hal_pwr.c **** #define CR_DBP_BB                ((uint32_t)(PERIPH_BB_BASE + (PWR_CR_OFFSET_BB * 32U) + (DBP_BIT_N
  82:../../../auto/rev0/Drivers/STM32F1xx_HAL_Driver/Src/stm32f1xx_hal_pwr.c **** 
  83:../../../auto/rev0/Drivers/STM32F1xx_HAL_Driver/Src/stm32f1xx_hal_pwr.c **** /* Alias word address of PVDE bit */
  84:../../../auto/rev0/Drivers/STM32F1xx_HAL_Driver/Src/stm32f1xx_hal_pwr.c **** #define PVDE_BIT_NUMBER           PWR_CR_PVDE_Pos
  85:../../../auto/rev0/Drivers/STM32F1xx_HAL_Driver/Src/stm32f1xx_hal_pwr.c **** #define CR_PVDE_BB               ((uint32_t)(PERIPH_BB_BASE + (PWR_CR_OFFSET_BB * 32U) + (PVDE_BIT_
  86:../../../auto/rev0/Drivers/STM32F1xx_HAL_Driver/Src/stm32f1xx_hal_pwr.c **** 
  87:../../../auto/rev0/Drivers/STM32F1xx_HAL_Driver/Src/stm32f1xx_hal_pwr.c **** /**
  88:../../../auto/rev0/Drivers/STM32F1xx_HAL_Driver/Src/stm32f1xx_hal_pwr.c ****   * @}
  89:../../../auto/rev0/Drivers/STM32F1xx_HAL_Driver/Src/stm32f1xx_hal_pwr.c ****   */
  90:../../../auto/rev0/Drivers/STM32F1xx_HAL_Driver/Src/stm32f1xx_hal_pwr.c **** 
ARM GAS  C:\Users\SRY19_~1\AppData\Local\Temp\ccOeh7I2.s 			page 3


  91:../../../auto/rev0/Drivers/STM32F1xx_HAL_Driver/Src/stm32f1xx_hal_pwr.c **** /** @defgroup PWR_CSR_register_alias PWR CSR Register alias address
  92:../../../auto/rev0/Drivers/STM32F1xx_HAL_Driver/Src/stm32f1xx_hal_pwr.c ****   * @{
  93:../../../auto/rev0/Drivers/STM32F1xx_HAL_Driver/Src/stm32f1xx_hal_pwr.c ****   */
  94:../../../auto/rev0/Drivers/STM32F1xx_HAL_Driver/Src/stm32f1xx_hal_pwr.c **** 
  95:../../../auto/rev0/Drivers/STM32F1xx_HAL_Driver/Src/stm32f1xx_hal_pwr.c **** /* --- CSR Register ---*/
  96:../../../auto/rev0/Drivers/STM32F1xx_HAL_Driver/Src/stm32f1xx_hal_pwr.c **** /* Alias word address of EWUP1 bit */
  97:../../../auto/rev0/Drivers/STM32F1xx_HAL_Driver/Src/stm32f1xx_hal_pwr.c **** #define CSR_EWUP_BB(VAL)         ((uint32_t)(PERIPH_BB_BASE + (PWR_CSR_OFFSET_BB * 32U) + (POSITION
  98:../../../auto/rev0/Drivers/STM32F1xx_HAL_Driver/Src/stm32f1xx_hal_pwr.c **** /**
  99:../../../auto/rev0/Drivers/STM32F1xx_HAL_Driver/Src/stm32f1xx_hal_pwr.c ****   * @}
 100:../../../auto/rev0/Drivers/STM32F1xx_HAL_Driver/Src/stm32f1xx_hal_pwr.c ****   */
 101:../../../auto/rev0/Drivers/STM32F1xx_HAL_Driver/Src/stm32f1xx_hal_pwr.c ****   
 102:../../../auto/rev0/Drivers/STM32F1xx_HAL_Driver/Src/stm32f1xx_hal_pwr.c **** /**
 103:../../../auto/rev0/Drivers/STM32F1xx_HAL_Driver/Src/stm32f1xx_hal_pwr.c ****   * @}
 104:../../../auto/rev0/Drivers/STM32F1xx_HAL_Driver/Src/stm32f1xx_hal_pwr.c ****   */
 105:../../../auto/rev0/Drivers/STM32F1xx_HAL_Driver/Src/stm32f1xx_hal_pwr.c **** 
 106:../../../auto/rev0/Drivers/STM32F1xx_HAL_Driver/Src/stm32f1xx_hal_pwr.c **** /* Private variables ---------------------------------------------------------*/
 107:../../../auto/rev0/Drivers/STM32F1xx_HAL_Driver/Src/stm32f1xx_hal_pwr.c **** /* Private function prototypes -----------------------------------------------*/
 108:../../../auto/rev0/Drivers/STM32F1xx_HAL_Driver/Src/stm32f1xx_hal_pwr.c **** /** @defgroup PWR_Private_Functions PWR Private Functions
 109:../../../auto/rev0/Drivers/STM32F1xx_HAL_Driver/Src/stm32f1xx_hal_pwr.c ****  * brief   WFE cortex command overloaded for HAL_PWR_EnterSTOPMode usage only (see Workaround secti
 110:../../../auto/rev0/Drivers/STM32F1xx_HAL_Driver/Src/stm32f1xx_hal_pwr.c ****  * @{
 111:../../../auto/rev0/Drivers/STM32F1xx_HAL_Driver/Src/stm32f1xx_hal_pwr.c ****  */
 112:../../../auto/rev0/Drivers/STM32F1xx_HAL_Driver/Src/stm32f1xx_hal_pwr.c **** static void PWR_OverloadWfe(void);
 113:../../../auto/rev0/Drivers/STM32F1xx_HAL_Driver/Src/stm32f1xx_hal_pwr.c **** 
 114:../../../auto/rev0/Drivers/STM32F1xx_HAL_Driver/Src/stm32f1xx_hal_pwr.c **** /* Private functions ---------------------------------------------------------*/
 115:../../../auto/rev0/Drivers/STM32F1xx_HAL_Driver/Src/stm32f1xx_hal_pwr.c **** __NOINLINE
 116:../../../auto/rev0/Drivers/STM32F1xx_HAL_Driver/Src/stm32f1xx_hal_pwr.c **** static void PWR_OverloadWfe(void)
 117:../../../auto/rev0/Drivers/STM32F1xx_HAL_Driver/Src/stm32f1xx_hal_pwr.c **** {
  26              		.loc 1 117 1 view -0
  27              		.cfi_startproc
  28              		@ args = 0, pretend = 0, frame = 0
  29              		@ frame_needed = 0, uses_anonymous_args = 0
  30              		@ link register save eliminated.
 118:../../../auto/rev0/Drivers/STM32F1xx_HAL_Driver/Src/stm32f1xx_hal_pwr.c ****   __asm volatile( "wfe" );
  31              		.loc 1 118 3 view .LVU1
  32              		.syntax unified
  33              	@ 118 "../../../auto/rev0/Drivers/STM32F1xx_HAL_Driver/Src/stm32f1xx_hal_pwr.c" 1
  34 0000 20BF     		wfe
  35              	@ 0 "" 2
 119:../../../auto/rev0/Drivers/STM32F1xx_HAL_Driver/Src/stm32f1xx_hal_pwr.c ****   __asm volatile( "nop" );
  36              		.loc 1 119 3 view .LVU2
  37              	@ 119 "../../../auto/rev0/Drivers/STM32F1xx_HAL_Driver/Src/stm32f1xx_hal_pwr.c" 1
  38 0002 00BF     		nop
  39              	@ 0 "" 2
 120:../../../auto/rev0/Drivers/STM32F1xx_HAL_Driver/Src/stm32f1xx_hal_pwr.c **** }
  40              		.loc 1 120 1 is_stmt 0 view .LVU3
  41              		.thumb
  42              		.syntax unified
  43 0004 7047     		bx	lr
  44              		.cfi_endproc
  45              	.LFE65:
  47              		.section	.text.HAL_PWR_DeInit,"ax",%progbits
  48              		.align	1
  49              		.global	HAL_PWR_DeInit
  50              		.syntax unified
  51              		.thumb
  52              		.thumb_func
  54              	HAL_PWR_DeInit:
ARM GAS  C:\Users\SRY19_~1\AppData\Local\Temp\ccOeh7I2.s 			page 4


  55              	.LFB66:
 121:../../../auto/rev0/Drivers/STM32F1xx_HAL_Driver/Src/stm32f1xx_hal_pwr.c **** 
 122:../../../auto/rev0/Drivers/STM32F1xx_HAL_Driver/Src/stm32f1xx_hal_pwr.c **** /**
 123:../../../auto/rev0/Drivers/STM32F1xx_HAL_Driver/Src/stm32f1xx_hal_pwr.c ****   * @}
 124:../../../auto/rev0/Drivers/STM32F1xx_HAL_Driver/Src/stm32f1xx_hal_pwr.c ****   */
 125:../../../auto/rev0/Drivers/STM32F1xx_HAL_Driver/Src/stm32f1xx_hal_pwr.c **** 
 126:../../../auto/rev0/Drivers/STM32F1xx_HAL_Driver/Src/stm32f1xx_hal_pwr.c **** 
 127:../../../auto/rev0/Drivers/STM32F1xx_HAL_Driver/Src/stm32f1xx_hal_pwr.c **** /** @defgroup PWR_Exported_Functions PWR Exported Functions
 128:../../../auto/rev0/Drivers/STM32F1xx_HAL_Driver/Src/stm32f1xx_hal_pwr.c ****   * @{
 129:../../../auto/rev0/Drivers/STM32F1xx_HAL_Driver/Src/stm32f1xx_hal_pwr.c ****   */
 130:../../../auto/rev0/Drivers/STM32F1xx_HAL_Driver/Src/stm32f1xx_hal_pwr.c **** 
 131:../../../auto/rev0/Drivers/STM32F1xx_HAL_Driver/Src/stm32f1xx_hal_pwr.c **** /** @defgroup PWR_Exported_Functions_Group1 Initialization and de-initialization functions 
 132:../../../auto/rev0/Drivers/STM32F1xx_HAL_Driver/Src/stm32f1xx_hal_pwr.c ****   *  @brief   Initialization and de-initialization functions
 133:../../../auto/rev0/Drivers/STM32F1xx_HAL_Driver/Src/stm32f1xx_hal_pwr.c ****   *
 134:../../../auto/rev0/Drivers/STM32F1xx_HAL_Driver/Src/stm32f1xx_hal_pwr.c **** @verbatim
 135:../../../auto/rev0/Drivers/STM32F1xx_HAL_Driver/Src/stm32f1xx_hal_pwr.c ****  ===============================================================================
 136:../../../auto/rev0/Drivers/STM32F1xx_HAL_Driver/Src/stm32f1xx_hal_pwr.c ****               ##### Initialization and de-initialization functions #####
 137:../../../auto/rev0/Drivers/STM32F1xx_HAL_Driver/Src/stm32f1xx_hal_pwr.c ****  ===============================================================================
 138:../../../auto/rev0/Drivers/STM32F1xx_HAL_Driver/Src/stm32f1xx_hal_pwr.c ****     [..]
 139:../../../auto/rev0/Drivers/STM32F1xx_HAL_Driver/Src/stm32f1xx_hal_pwr.c ****       After reset, the backup domain (RTC registers, RTC backup data
 140:../../../auto/rev0/Drivers/STM32F1xx_HAL_Driver/Src/stm32f1xx_hal_pwr.c ****       registers) is protected against possible unwanted
 141:../../../auto/rev0/Drivers/STM32F1xx_HAL_Driver/Src/stm32f1xx_hal_pwr.c ****       write accesses.
 142:../../../auto/rev0/Drivers/STM32F1xx_HAL_Driver/Src/stm32f1xx_hal_pwr.c ****       To enable access to the RTC Domain and RTC registers, proceed as follows:
 143:../../../auto/rev0/Drivers/STM32F1xx_HAL_Driver/Src/stm32f1xx_hal_pwr.c ****         (+) Enable the Power Controller (PWR) APB1 interface clock using the
 144:../../../auto/rev0/Drivers/STM32F1xx_HAL_Driver/Src/stm32f1xx_hal_pwr.c ****             __HAL_RCC_PWR_CLK_ENABLE() macro.
 145:../../../auto/rev0/Drivers/STM32F1xx_HAL_Driver/Src/stm32f1xx_hal_pwr.c ****         (+) Enable access to RTC domain using the HAL_PWR_EnableBkUpAccess() function.
 146:../../../auto/rev0/Drivers/STM32F1xx_HAL_Driver/Src/stm32f1xx_hal_pwr.c **** 
 147:../../../auto/rev0/Drivers/STM32F1xx_HAL_Driver/Src/stm32f1xx_hal_pwr.c **** @endverbatim
 148:../../../auto/rev0/Drivers/STM32F1xx_HAL_Driver/Src/stm32f1xx_hal_pwr.c ****   * @{
 149:../../../auto/rev0/Drivers/STM32F1xx_HAL_Driver/Src/stm32f1xx_hal_pwr.c ****   */
 150:../../../auto/rev0/Drivers/STM32F1xx_HAL_Driver/Src/stm32f1xx_hal_pwr.c **** 
 151:../../../auto/rev0/Drivers/STM32F1xx_HAL_Driver/Src/stm32f1xx_hal_pwr.c **** /**
 152:../../../auto/rev0/Drivers/STM32F1xx_HAL_Driver/Src/stm32f1xx_hal_pwr.c ****   * @brief  Deinitializes the PWR peripheral registers to their default reset values.  
 153:../../../auto/rev0/Drivers/STM32F1xx_HAL_Driver/Src/stm32f1xx_hal_pwr.c ****   * @retval None
 154:../../../auto/rev0/Drivers/STM32F1xx_HAL_Driver/Src/stm32f1xx_hal_pwr.c ****   */
 155:../../../auto/rev0/Drivers/STM32F1xx_HAL_Driver/Src/stm32f1xx_hal_pwr.c **** void HAL_PWR_DeInit(void)
 156:../../../auto/rev0/Drivers/STM32F1xx_HAL_Driver/Src/stm32f1xx_hal_pwr.c **** {
  56              		.loc 1 156 1 is_stmt 1 view -0
  57              		.cfi_startproc
  58              		@ args = 0, pretend = 0, frame = 0
  59              		@ frame_needed = 0, uses_anonymous_args = 0
  60              		@ link register save eliminated.
 157:../../../auto/rev0/Drivers/STM32F1xx_HAL_Driver/Src/stm32f1xx_hal_pwr.c ****   __HAL_RCC_PWR_FORCE_RESET();
  61              		.loc 1 157 3 view .LVU5
  62 0000 044B     		ldr	r3, .L3
  63 0002 1A69     		ldr	r2, [r3, #16]
  64 0004 42F08052 		orr	r2, r2, #268435456
  65 0008 1A61     		str	r2, [r3, #16]
 158:../../../auto/rev0/Drivers/STM32F1xx_HAL_Driver/Src/stm32f1xx_hal_pwr.c ****   __HAL_RCC_PWR_RELEASE_RESET();
  66              		.loc 1 158 3 view .LVU6
  67 000a 1A69     		ldr	r2, [r3, #16]
  68 000c 22F08052 		bic	r2, r2, #268435456
  69 0010 1A61     		str	r2, [r3, #16]
 159:../../../auto/rev0/Drivers/STM32F1xx_HAL_Driver/Src/stm32f1xx_hal_pwr.c **** }
  70              		.loc 1 159 1 is_stmt 0 view .LVU7
  71 0012 7047     		bx	lr
  72              	.L4:
ARM GAS  C:\Users\SRY19_~1\AppData\Local\Temp\ccOeh7I2.s 			page 5


  73              		.align	2
  74              	.L3:
  75 0014 00100240 		.word	1073876992
  76              		.cfi_endproc
  77              	.LFE66:
  79              		.section	.text.HAL_PWR_EnableBkUpAccess,"ax",%progbits
  80              		.align	1
  81              		.global	HAL_PWR_EnableBkUpAccess
  82              		.syntax unified
  83              		.thumb
  84              		.thumb_func
  86              	HAL_PWR_EnableBkUpAccess:
  87              	.LFB67:
 160:../../../auto/rev0/Drivers/STM32F1xx_HAL_Driver/Src/stm32f1xx_hal_pwr.c **** 
 161:../../../auto/rev0/Drivers/STM32F1xx_HAL_Driver/Src/stm32f1xx_hal_pwr.c **** /**
 162:../../../auto/rev0/Drivers/STM32F1xx_HAL_Driver/Src/stm32f1xx_hal_pwr.c ****   * @brief  Enables access to the backup domain (RTC registers, RTC
 163:../../../auto/rev0/Drivers/STM32F1xx_HAL_Driver/Src/stm32f1xx_hal_pwr.c ****   *         backup data registers ).
 164:../../../auto/rev0/Drivers/STM32F1xx_HAL_Driver/Src/stm32f1xx_hal_pwr.c ****   * @note   If the HSE divided by 128 is used as the RTC clock, the
 165:../../../auto/rev0/Drivers/STM32F1xx_HAL_Driver/Src/stm32f1xx_hal_pwr.c ****   *         Backup Domain Access should be kept enabled.
 166:../../../auto/rev0/Drivers/STM32F1xx_HAL_Driver/Src/stm32f1xx_hal_pwr.c ****   * @retval None
 167:../../../auto/rev0/Drivers/STM32F1xx_HAL_Driver/Src/stm32f1xx_hal_pwr.c ****   */
 168:../../../auto/rev0/Drivers/STM32F1xx_HAL_Driver/Src/stm32f1xx_hal_pwr.c **** void HAL_PWR_EnableBkUpAccess(void)
 169:../../../auto/rev0/Drivers/STM32F1xx_HAL_Driver/Src/stm32f1xx_hal_pwr.c **** {
  88              		.loc 1 169 1 is_stmt 1 view -0
  89              		.cfi_startproc
  90              		@ args = 0, pretend = 0, frame = 0
  91              		@ frame_needed = 0, uses_anonymous_args = 0
  92              		@ link register save eliminated.
 170:../../../auto/rev0/Drivers/STM32F1xx_HAL_Driver/Src/stm32f1xx_hal_pwr.c ****   /* Enable access to RTC and backup registers */
 171:../../../auto/rev0/Drivers/STM32F1xx_HAL_Driver/Src/stm32f1xx_hal_pwr.c ****   *(__IO uint32_t *) CR_DBP_BB = (uint32_t)ENABLE;
  93              		.loc 1 171 3 view .LVU9
  94              		.loc 1 171 32 is_stmt 0 view .LVU10
  95 0000 014B     		ldr	r3, .L6
  96 0002 0122     		movs	r2, #1
  97 0004 1A62     		str	r2, [r3, #32]
 172:../../../auto/rev0/Drivers/STM32F1xx_HAL_Driver/Src/stm32f1xx_hal_pwr.c **** }
  98              		.loc 1 172 1 view .LVU11
  99 0006 7047     		bx	lr
 100              	.L7:
 101              		.align	2
 102              	.L6:
 103 0008 00000E42 		.word	1108213760
 104              		.cfi_endproc
 105              	.LFE67:
 107              		.section	.text.HAL_PWR_DisableBkUpAccess,"ax",%progbits
 108              		.align	1
 109              		.global	HAL_PWR_DisableBkUpAccess
 110              		.syntax unified
 111              		.thumb
 112              		.thumb_func
 114              	HAL_PWR_DisableBkUpAccess:
 115              	.LFB68:
 173:../../../auto/rev0/Drivers/STM32F1xx_HAL_Driver/Src/stm32f1xx_hal_pwr.c **** 
 174:../../../auto/rev0/Drivers/STM32F1xx_HAL_Driver/Src/stm32f1xx_hal_pwr.c **** /**
 175:../../../auto/rev0/Drivers/STM32F1xx_HAL_Driver/Src/stm32f1xx_hal_pwr.c ****   * @brief  Disables access to the backup domain (RTC registers, RTC
 176:../../../auto/rev0/Drivers/STM32F1xx_HAL_Driver/Src/stm32f1xx_hal_pwr.c ****   *         backup data registers).
 177:../../../auto/rev0/Drivers/STM32F1xx_HAL_Driver/Src/stm32f1xx_hal_pwr.c ****   * @note   If the HSE divided by 128 is used as the RTC clock, the
ARM GAS  C:\Users\SRY19_~1\AppData\Local\Temp\ccOeh7I2.s 			page 6


 178:../../../auto/rev0/Drivers/STM32F1xx_HAL_Driver/Src/stm32f1xx_hal_pwr.c ****   *         Backup Domain Access should be kept enabled.
 179:../../../auto/rev0/Drivers/STM32F1xx_HAL_Driver/Src/stm32f1xx_hal_pwr.c ****   * @retval None
 180:../../../auto/rev0/Drivers/STM32F1xx_HAL_Driver/Src/stm32f1xx_hal_pwr.c ****   */
 181:../../../auto/rev0/Drivers/STM32F1xx_HAL_Driver/Src/stm32f1xx_hal_pwr.c **** void HAL_PWR_DisableBkUpAccess(void)
 182:../../../auto/rev0/Drivers/STM32F1xx_HAL_Driver/Src/stm32f1xx_hal_pwr.c **** {
 116              		.loc 1 182 1 is_stmt 1 view -0
 117              		.cfi_startproc
 118              		@ args = 0, pretend = 0, frame = 0
 119              		@ frame_needed = 0, uses_anonymous_args = 0
 120              		@ link register save eliminated.
 183:../../../auto/rev0/Drivers/STM32F1xx_HAL_Driver/Src/stm32f1xx_hal_pwr.c ****   /* Disable access to RTC and backup registers */
 184:../../../auto/rev0/Drivers/STM32F1xx_HAL_Driver/Src/stm32f1xx_hal_pwr.c ****   *(__IO uint32_t *) CR_DBP_BB = (uint32_t)DISABLE;
 121              		.loc 1 184 3 view .LVU13
 122              		.loc 1 184 32 is_stmt 0 view .LVU14
 123 0000 014B     		ldr	r3, .L9
 124 0002 0022     		movs	r2, #0
 125 0004 1A62     		str	r2, [r3, #32]
 185:../../../auto/rev0/Drivers/STM32F1xx_HAL_Driver/Src/stm32f1xx_hal_pwr.c **** }
 126              		.loc 1 185 1 view .LVU15
 127 0006 7047     		bx	lr
 128              	.L10:
 129              		.align	2
 130              	.L9:
 131 0008 00000E42 		.word	1108213760
 132              		.cfi_endproc
 133              	.LFE68:
 135              		.section	.text.HAL_PWR_ConfigPVD,"ax",%progbits
 136              		.align	1
 137              		.global	HAL_PWR_ConfigPVD
 138              		.syntax unified
 139              		.thumb
 140              		.thumb_func
 142              	HAL_PWR_ConfigPVD:
 143              	.LVL0:
 144              	.LFB69:
 186:../../../auto/rev0/Drivers/STM32F1xx_HAL_Driver/Src/stm32f1xx_hal_pwr.c **** 
 187:../../../auto/rev0/Drivers/STM32F1xx_HAL_Driver/Src/stm32f1xx_hal_pwr.c **** /**
 188:../../../auto/rev0/Drivers/STM32F1xx_HAL_Driver/Src/stm32f1xx_hal_pwr.c ****   * @}
 189:../../../auto/rev0/Drivers/STM32F1xx_HAL_Driver/Src/stm32f1xx_hal_pwr.c ****   */
 190:../../../auto/rev0/Drivers/STM32F1xx_HAL_Driver/Src/stm32f1xx_hal_pwr.c **** 
 191:../../../auto/rev0/Drivers/STM32F1xx_HAL_Driver/Src/stm32f1xx_hal_pwr.c **** /** @defgroup PWR_Exported_Functions_Group2 Peripheral Control functions 
 192:../../../auto/rev0/Drivers/STM32F1xx_HAL_Driver/Src/stm32f1xx_hal_pwr.c ****   * @brief    Low Power modes configuration functions
 193:../../../auto/rev0/Drivers/STM32F1xx_HAL_Driver/Src/stm32f1xx_hal_pwr.c ****   *
 194:../../../auto/rev0/Drivers/STM32F1xx_HAL_Driver/Src/stm32f1xx_hal_pwr.c **** @verbatim
 195:../../../auto/rev0/Drivers/STM32F1xx_HAL_Driver/Src/stm32f1xx_hal_pwr.c ****  ===============================================================================
 196:../../../auto/rev0/Drivers/STM32F1xx_HAL_Driver/Src/stm32f1xx_hal_pwr.c ****                  ##### Peripheral Control functions #####
 197:../../../auto/rev0/Drivers/STM32F1xx_HAL_Driver/Src/stm32f1xx_hal_pwr.c ****  ===============================================================================
 198:../../../auto/rev0/Drivers/STM32F1xx_HAL_Driver/Src/stm32f1xx_hal_pwr.c ****      
 199:../../../auto/rev0/Drivers/STM32F1xx_HAL_Driver/Src/stm32f1xx_hal_pwr.c ****     *** PVD configuration ***
 200:../../../auto/rev0/Drivers/STM32F1xx_HAL_Driver/Src/stm32f1xx_hal_pwr.c ****     =========================
 201:../../../auto/rev0/Drivers/STM32F1xx_HAL_Driver/Src/stm32f1xx_hal_pwr.c ****     [..]
 202:../../../auto/rev0/Drivers/STM32F1xx_HAL_Driver/Src/stm32f1xx_hal_pwr.c ****       (+) The PVD is used to monitor the VDD power supply by comparing it to a
 203:../../../auto/rev0/Drivers/STM32F1xx_HAL_Driver/Src/stm32f1xx_hal_pwr.c ****           threshold selected by the PVD Level (PLS[2:0] bits in the PWR_CR).
 204:../../../auto/rev0/Drivers/STM32F1xx_HAL_Driver/Src/stm32f1xx_hal_pwr.c **** 
 205:../../../auto/rev0/Drivers/STM32F1xx_HAL_Driver/Src/stm32f1xx_hal_pwr.c ****       (+) A PVDO flag is available to indicate if VDD/VDDA is higher or lower
 206:../../../auto/rev0/Drivers/STM32F1xx_HAL_Driver/Src/stm32f1xx_hal_pwr.c ****           than the PVD threshold. This event is internally connected to the EXTI
 207:../../../auto/rev0/Drivers/STM32F1xx_HAL_Driver/Src/stm32f1xx_hal_pwr.c ****           line16 and can generate an interrupt if enabled. This is done through
ARM GAS  C:\Users\SRY19_~1\AppData\Local\Temp\ccOeh7I2.s 			page 7


 208:../../../auto/rev0/Drivers/STM32F1xx_HAL_Driver/Src/stm32f1xx_hal_pwr.c ****           __HAL_PVD_EXTI_ENABLE_IT() macro.
 209:../../../auto/rev0/Drivers/STM32F1xx_HAL_Driver/Src/stm32f1xx_hal_pwr.c ****       (+) The PVD is stopped in Standby mode.
 210:../../../auto/rev0/Drivers/STM32F1xx_HAL_Driver/Src/stm32f1xx_hal_pwr.c **** 
 211:../../../auto/rev0/Drivers/STM32F1xx_HAL_Driver/Src/stm32f1xx_hal_pwr.c ****     *** WakeUp pin configuration ***
 212:../../../auto/rev0/Drivers/STM32F1xx_HAL_Driver/Src/stm32f1xx_hal_pwr.c ****     ================================
 213:../../../auto/rev0/Drivers/STM32F1xx_HAL_Driver/Src/stm32f1xx_hal_pwr.c ****     [..]
 214:../../../auto/rev0/Drivers/STM32F1xx_HAL_Driver/Src/stm32f1xx_hal_pwr.c ****       (+) WakeUp pin is used to wake up the system from Standby mode. This pin is
 215:../../../auto/rev0/Drivers/STM32F1xx_HAL_Driver/Src/stm32f1xx_hal_pwr.c ****           forced in input pull-down configuration and is active on rising edges.
 216:../../../auto/rev0/Drivers/STM32F1xx_HAL_Driver/Src/stm32f1xx_hal_pwr.c ****       (+) There is one WakeUp pin:
 217:../../../auto/rev0/Drivers/STM32F1xx_HAL_Driver/Src/stm32f1xx_hal_pwr.c ****           WakeUp Pin 1 on PA.00.
 218:../../../auto/rev0/Drivers/STM32F1xx_HAL_Driver/Src/stm32f1xx_hal_pwr.c **** 
 219:../../../auto/rev0/Drivers/STM32F1xx_HAL_Driver/Src/stm32f1xx_hal_pwr.c ****     [..]
 220:../../../auto/rev0/Drivers/STM32F1xx_HAL_Driver/Src/stm32f1xx_hal_pwr.c **** 
 221:../../../auto/rev0/Drivers/STM32F1xx_HAL_Driver/Src/stm32f1xx_hal_pwr.c ****     *** Low Power modes configuration ***
 222:../../../auto/rev0/Drivers/STM32F1xx_HAL_Driver/Src/stm32f1xx_hal_pwr.c ****     =====================================
 223:../../../auto/rev0/Drivers/STM32F1xx_HAL_Driver/Src/stm32f1xx_hal_pwr.c ****      [..]
 224:../../../auto/rev0/Drivers/STM32F1xx_HAL_Driver/Src/stm32f1xx_hal_pwr.c ****       The device features 3 low-power modes:
 225:../../../auto/rev0/Drivers/STM32F1xx_HAL_Driver/Src/stm32f1xx_hal_pwr.c ****       (+) Sleep mode: CPU clock off, all peripherals including Cortex-M3 core peripherals like 
 226:../../../auto/rev0/Drivers/STM32F1xx_HAL_Driver/Src/stm32f1xx_hal_pwr.c ****                       NVIC, SysTick, etc. are kept running
 227:../../../auto/rev0/Drivers/STM32F1xx_HAL_Driver/Src/stm32f1xx_hal_pwr.c ****       (+) Stop mode: All clocks are stopped
 228:../../../auto/rev0/Drivers/STM32F1xx_HAL_Driver/Src/stm32f1xx_hal_pwr.c ****       (+) Standby mode: 1.8V domain powered off
 229:../../../auto/rev0/Drivers/STM32F1xx_HAL_Driver/Src/stm32f1xx_hal_pwr.c ****   
 230:../../../auto/rev0/Drivers/STM32F1xx_HAL_Driver/Src/stm32f1xx_hal_pwr.c ****   
 231:../../../auto/rev0/Drivers/STM32F1xx_HAL_Driver/Src/stm32f1xx_hal_pwr.c ****    *** Sleep mode ***
 232:../../../auto/rev0/Drivers/STM32F1xx_HAL_Driver/Src/stm32f1xx_hal_pwr.c ****    ==================
 233:../../../auto/rev0/Drivers/STM32F1xx_HAL_Driver/Src/stm32f1xx_hal_pwr.c ****     [..]
 234:../../../auto/rev0/Drivers/STM32F1xx_HAL_Driver/Src/stm32f1xx_hal_pwr.c ****       (+) Entry:
 235:../../../auto/rev0/Drivers/STM32F1xx_HAL_Driver/Src/stm32f1xx_hal_pwr.c ****           The Sleep mode is entered by using the HAL_PWR_EnterSLEEPMode(PWR_MAINREGULATOR_ON, PWR_S
 236:../../../auto/rev0/Drivers/STM32F1xx_HAL_Driver/Src/stm32f1xx_hal_pwr.c ****               functions with
 237:../../../auto/rev0/Drivers/STM32F1xx_HAL_Driver/Src/stm32f1xx_hal_pwr.c ****           (++) PWR_SLEEPENTRY_WFI: enter SLEEP mode with WFI instruction
 238:../../../auto/rev0/Drivers/STM32F1xx_HAL_Driver/Src/stm32f1xx_hal_pwr.c ****           (++) PWR_SLEEPENTRY_WFE: enter SLEEP mode with WFE instruction
 239:../../../auto/rev0/Drivers/STM32F1xx_HAL_Driver/Src/stm32f1xx_hal_pwr.c ****      
 240:../../../auto/rev0/Drivers/STM32F1xx_HAL_Driver/Src/stm32f1xx_hal_pwr.c ****       (+) Exit:
 241:../../../auto/rev0/Drivers/STM32F1xx_HAL_Driver/Src/stm32f1xx_hal_pwr.c ****         (++) WFI entry mode, Any peripheral interrupt acknowledged by the nested vectored interrupt
 242:../../../auto/rev0/Drivers/STM32F1xx_HAL_Driver/Src/stm32f1xx_hal_pwr.c ****              controller (NVIC) can wake up the device from Sleep mode.
 243:../../../auto/rev0/Drivers/STM32F1xx_HAL_Driver/Src/stm32f1xx_hal_pwr.c ****         (++) WFE entry mode, Any wakeup event can wake up the device from Sleep mode.
 244:../../../auto/rev0/Drivers/STM32F1xx_HAL_Driver/Src/stm32f1xx_hal_pwr.c ****            (+++) Any peripheral interrupt w/o NVIC configuration & SEVONPEND bit set in the Cortex 
 245:../../../auto/rev0/Drivers/STM32F1xx_HAL_Driver/Src/stm32f1xx_hal_pwr.c ****            (+++) Any EXTI Line (Internal or External) configured in Event mode
 246:../../../auto/rev0/Drivers/STM32F1xx_HAL_Driver/Src/stm32f1xx_hal_pwr.c **** 
 247:../../../auto/rev0/Drivers/STM32F1xx_HAL_Driver/Src/stm32f1xx_hal_pwr.c ****    *** Stop mode ***
 248:../../../auto/rev0/Drivers/STM32F1xx_HAL_Driver/Src/stm32f1xx_hal_pwr.c ****    =================
 249:../../../auto/rev0/Drivers/STM32F1xx_HAL_Driver/Src/stm32f1xx_hal_pwr.c ****     [..]
 250:../../../auto/rev0/Drivers/STM32F1xx_HAL_Driver/Src/stm32f1xx_hal_pwr.c ****       The Stop mode is based on the Cortex-M3 deepsleep mode combined with peripheral
 251:../../../auto/rev0/Drivers/STM32F1xx_HAL_Driver/Src/stm32f1xx_hal_pwr.c ****       clock gating. The voltage regulator can be configured either in normal or low-power mode.
 252:../../../auto/rev0/Drivers/STM32F1xx_HAL_Driver/Src/stm32f1xx_hal_pwr.c ****       In Stop mode, all clocks in the 1.8 V domain are stopped, the PLL, the HSI and the HSE RC 
 253:../../../auto/rev0/Drivers/STM32F1xx_HAL_Driver/Src/stm32f1xx_hal_pwr.c ****       oscillators are disabled. SRAM and register contents are preserved.
 254:../../../auto/rev0/Drivers/STM32F1xx_HAL_Driver/Src/stm32f1xx_hal_pwr.c ****       In Stop mode, all I/O pins keep the same state as in Run mode.
 255:../../../auto/rev0/Drivers/STM32F1xx_HAL_Driver/Src/stm32f1xx_hal_pwr.c **** 
 256:../../../auto/rev0/Drivers/STM32F1xx_HAL_Driver/Src/stm32f1xx_hal_pwr.c ****       (+) Entry:
 257:../../../auto/rev0/Drivers/STM32F1xx_HAL_Driver/Src/stm32f1xx_hal_pwr.c ****            The Stop mode is entered using the HAL_PWR_EnterSTOPMode(PWR_REGULATOR_VALUE, PWR_SLEEPE
 258:../../../auto/rev0/Drivers/STM32F1xx_HAL_Driver/Src/stm32f1xx_hal_pwr.c ****              function with:
 259:../../../auto/rev0/Drivers/STM32F1xx_HAL_Driver/Src/stm32f1xx_hal_pwr.c ****           (++) PWR_REGULATOR_VALUE= PWR_MAINREGULATOR_ON: Main regulator ON.
 260:../../../auto/rev0/Drivers/STM32F1xx_HAL_Driver/Src/stm32f1xx_hal_pwr.c ****           (++) PWR_REGULATOR_VALUE= PWR_LOWPOWERREGULATOR_ON: Low Power regulator ON.
 261:../../../auto/rev0/Drivers/STM32F1xx_HAL_Driver/Src/stm32f1xx_hal_pwr.c ****           (++) PWR_SLEEPENTRY_WFx= PWR_SLEEPENTRY_WFI: enter STOP mode with WFI instruction
 262:../../../auto/rev0/Drivers/STM32F1xx_HAL_Driver/Src/stm32f1xx_hal_pwr.c ****           (++) PWR_SLEEPENTRY_WFx= PWR_SLEEPENTRY_WFE: enter STOP mode with WFE instruction
 263:../../../auto/rev0/Drivers/STM32F1xx_HAL_Driver/Src/stm32f1xx_hal_pwr.c ****       (+) Exit:
 264:../../../auto/rev0/Drivers/STM32F1xx_HAL_Driver/Src/stm32f1xx_hal_pwr.c ****           (++) WFI entry mode, Any EXTI Line (Internal or External) configured in Interrupt mode wi
ARM GAS  C:\Users\SRY19_~1\AppData\Local\Temp\ccOeh7I2.s 			page 8


 265:../../../auto/rev0/Drivers/STM32F1xx_HAL_Driver/Src/stm32f1xx_hal_pwr.c ****           (++) WFE entry mode, Any EXTI Line (Internal or External) configured in Event mode.
 266:../../../auto/rev0/Drivers/STM32F1xx_HAL_Driver/Src/stm32f1xx_hal_pwr.c **** 
 267:../../../auto/rev0/Drivers/STM32F1xx_HAL_Driver/Src/stm32f1xx_hal_pwr.c ****    *** Standby mode ***
 268:../../../auto/rev0/Drivers/STM32F1xx_HAL_Driver/Src/stm32f1xx_hal_pwr.c ****    ====================
 269:../../../auto/rev0/Drivers/STM32F1xx_HAL_Driver/Src/stm32f1xx_hal_pwr.c ****      [..]
 270:../../../auto/rev0/Drivers/STM32F1xx_HAL_Driver/Src/stm32f1xx_hal_pwr.c ****       The Standby mode allows to achieve the lowest power consumption. It is based on the
 271:../../../auto/rev0/Drivers/STM32F1xx_HAL_Driver/Src/stm32f1xx_hal_pwr.c ****       Cortex-M3 deepsleep mode, with the voltage regulator disabled. The 1.8 V domain is 
 272:../../../auto/rev0/Drivers/STM32F1xx_HAL_Driver/Src/stm32f1xx_hal_pwr.c ****       consequently powered off. The PLL, the HSI oscillator and the HSE oscillator are also 
 273:../../../auto/rev0/Drivers/STM32F1xx_HAL_Driver/Src/stm32f1xx_hal_pwr.c ****       switched off. SRAM and register contents are lost except for registers in the Backup domain 
 274:../../../auto/rev0/Drivers/STM32F1xx_HAL_Driver/Src/stm32f1xx_hal_pwr.c ****       and Standby circuitry
 275:../../../auto/rev0/Drivers/STM32F1xx_HAL_Driver/Src/stm32f1xx_hal_pwr.c ****       
 276:../../../auto/rev0/Drivers/STM32F1xx_HAL_Driver/Src/stm32f1xx_hal_pwr.c ****       (+) Entry:
 277:../../../auto/rev0/Drivers/STM32F1xx_HAL_Driver/Src/stm32f1xx_hal_pwr.c ****         (++) The Standby mode is entered using the HAL_PWR_EnterSTANDBYMode() function.
 278:../../../auto/rev0/Drivers/STM32F1xx_HAL_Driver/Src/stm32f1xx_hal_pwr.c ****       (+) Exit:
 279:../../../auto/rev0/Drivers/STM32F1xx_HAL_Driver/Src/stm32f1xx_hal_pwr.c ****         (++) WKUP pin rising edge, RTC alarm event rising edge, external Reset in 
 280:../../../auto/rev0/Drivers/STM32F1xx_HAL_Driver/Src/stm32f1xx_hal_pwr.c ****              NRSTpin, IWDG Reset
 281:../../../auto/rev0/Drivers/STM32F1xx_HAL_Driver/Src/stm32f1xx_hal_pwr.c **** 
 282:../../../auto/rev0/Drivers/STM32F1xx_HAL_Driver/Src/stm32f1xx_hal_pwr.c ****    *** Auto-wakeup (AWU) from low-power mode ***
 283:../../../auto/rev0/Drivers/STM32F1xx_HAL_Driver/Src/stm32f1xx_hal_pwr.c ****        =============================================
 284:../../../auto/rev0/Drivers/STM32F1xx_HAL_Driver/Src/stm32f1xx_hal_pwr.c ****        [..]
 285:../../../auto/rev0/Drivers/STM32F1xx_HAL_Driver/Src/stm32f1xx_hal_pwr.c ****         
 286:../../../auto/rev0/Drivers/STM32F1xx_HAL_Driver/Src/stm32f1xx_hal_pwr.c ****        (+) The MCU can be woken up from low-power mode by an RTC Alarm event, 
 287:../../../auto/rev0/Drivers/STM32F1xx_HAL_Driver/Src/stm32f1xx_hal_pwr.c ****            without depending on an external interrupt (Auto-wakeup mode).
 288:../../../auto/rev0/Drivers/STM32F1xx_HAL_Driver/Src/stm32f1xx_hal_pwr.c ****    
 289:../../../auto/rev0/Drivers/STM32F1xx_HAL_Driver/Src/stm32f1xx_hal_pwr.c ****        (+) RTC auto-wakeup (AWU) from the Stop and Standby modes
 290:../../../auto/rev0/Drivers/STM32F1xx_HAL_Driver/Src/stm32f1xx_hal_pwr.c **** 
 291:../../../auto/rev0/Drivers/STM32F1xx_HAL_Driver/Src/stm32f1xx_hal_pwr.c ****            (++) To wake up from the Stop mode with an RTC alarm event, it is necessary to 
 292:../../../auto/rev0/Drivers/STM32F1xx_HAL_Driver/Src/stm32f1xx_hal_pwr.c ****                 configure the RTC to generate the RTC alarm using the HAL_RTC_SetAlarm_IT() functio
 293:../../../auto/rev0/Drivers/STM32F1xx_HAL_Driver/Src/stm32f1xx_hal_pwr.c **** 
 294:../../../auto/rev0/Drivers/STM32F1xx_HAL_Driver/Src/stm32f1xx_hal_pwr.c ****    *** PWR Workarounds linked to Silicon Limitation ***
 295:../../../auto/rev0/Drivers/STM32F1xx_HAL_Driver/Src/stm32f1xx_hal_pwr.c ****        ====================================================
 296:../../../auto/rev0/Drivers/STM32F1xx_HAL_Driver/Src/stm32f1xx_hal_pwr.c ****        [..]
 297:../../../auto/rev0/Drivers/STM32F1xx_HAL_Driver/Src/stm32f1xx_hal_pwr.c ****        Below the list of all silicon limitations known on STM32F1xx prouct.
 298:../../../auto/rev0/Drivers/STM32F1xx_HAL_Driver/Src/stm32f1xx_hal_pwr.c **** 
 299:../../../auto/rev0/Drivers/STM32F1xx_HAL_Driver/Src/stm32f1xx_hal_pwr.c ****        (#)Workarounds Implemented inside PWR HAL Driver
 300:../../../auto/rev0/Drivers/STM32F1xx_HAL_Driver/Src/stm32f1xx_hal_pwr.c ****           (##)Debugging Stop mode with WFE entry - overloaded the WFE by an internal function    
 301:../../../auto/rev0/Drivers/STM32F1xx_HAL_Driver/Src/stm32f1xx_hal_pwr.c ****         
 302:../../../auto/rev0/Drivers/STM32F1xx_HAL_Driver/Src/stm32f1xx_hal_pwr.c **** @endverbatim
 303:../../../auto/rev0/Drivers/STM32F1xx_HAL_Driver/Src/stm32f1xx_hal_pwr.c ****   * @{
 304:../../../auto/rev0/Drivers/STM32F1xx_HAL_Driver/Src/stm32f1xx_hal_pwr.c ****   */
 305:../../../auto/rev0/Drivers/STM32F1xx_HAL_Driver/Src/stm32f1xx_hal_pwr.c **** 
 306:../../../auto/rev0/Drivers/STM32F1xx_HAL_Driver/Src/stm32f1xx_hal_pwr.c **** /**
 307:../../../auto/rev0/Drivers/STM32F1xx_HAL_Driver/Src/stm32f1xx_hal_pwr.c ****   * @brief  Configures the voltage threshold detected by the Power Voltage Detector(PVD).
 308:../../../auto/rev0/Drivers/STM32F1xx_HAL_Driver/Src/stm32f1xx_hal_pwr.c ****   * @param  sConfigPVD: pointer to an PWR_PVDTypeDef structure that contains the configuration
 309:../../../auto/rev0/Drivers/STM32F1xx_HAL_Driver/Src/stm32f1xx_hal_pwr.c ****   *         information for the PVD.
 310:../../../auto/rev0/Drivers/STM32F1xx_HAL_Driver/Src/stm32f1xx_hal_pwr.c ****   * @note   Refer to the electrical characteristics of your device datasheet for
 311:../../../auto/rev0/Drivers/STM32F1xx_HAL_Driver/Src/stm32f1xx_hal_pwr.c ****   *         more details about the voltage threshold corresponding to each
 312:../../../auto/rev0/Drivers/STM32F1xx_HAL_Driver/Src/stm32f1xx_hal_pwr.c ****   *         detection level.
 313:../../../auto/rev0/Drivers/STM32F1xx_HAL_Driver/Src/stm32f1xx_hal_pwr.c ****   * @retval None
 314:../../../auto/rev0/Drivers/STM32F1xx_HAL_Driver/Src/stm32f1xx_hal_pwr.c ****   */
 315:../../../auto/rev0/Drivers/STM32F1xx_HAL_Driver/Src/stm32f1xx_hal_pwr.c **** void HAL_PWR_ConfigPVD(PWR_PVDTypeDef *sConfigPVD)
 316:../../../auto/rev0/Drivers/STM32F1xx_HAL_Driver/Src/stm32f1xx_hal_pwr.c **** {
 145              		.loc 1 316 1 is_stmt 1 view -0
 146              		.cfi_startproc
 147              		@ args = 0, pretend = 0, frame = 0
 148              		@ frame_needed = 0, uses_anonymous_args = 0
 149              		@ link register save eliminated.
ARM GAS  C:\Users\SRY19_~1\AppData\Local\Temp\ccOeh7I2.s 			page 9


 317:../../../auto/rev0/Drivers/STM32F1xx_HAL_Driver/Src/stm32f1xx_hal_pwr.c ****   /* Check the parameters */
 318:../../../auto/rev0/Drivers/STM32F1xx_HAL_Driver/Src/stm32f1xx_hal_pwr.c ****   assert_param(IS_PWR_PVD_LEVEL(sConfigPVD->PVDLevel));
 150              		.loc 1 318 3 view .LVU17
 319:../../../auto/rev0/Drivers/STM32F1xx_HAL_Driver/Src/stm32f1xx_hal_pwr.c ****   assert_param(IS_PWR_PVD_MODE(sConfigPVD->Mode));
 151              		.loc 1 319 3 view .LVU18
 320:../../../auto/rev0/Drivers/STM32F1xx_HAL_Driver/Src/stm32f1xx_hal_pwr.c **** 
 321:../../../auto/rev0/Drivers/STM32F1xx_HAL_Driver/Src/stm32f1xx_hal_pwr.c ****   /* Set PLS[7:5] bits according to PVDLevel value */
 322:../../../auto/rev0/Drivers/STM32F1xx_HAL_Driver/Src/stm32f1xx_hal_pwr.c ****   MODIFY_REG(PWR->CR, PWR_CR_PLS, sConfigPVD->PVDLevel);
 152              		.loc 1 322 3 view .LVU19
 153 0000 1E4A     		ldr	r2, .L16
 154 0002 1368     		ldr	r3, [r2]
 155 0004 23F0E003 		bic	r3, r3, #224
 156 0008 0168     		ldr	r1, [r0]
 157 000a 0B43     		orrs	r3, r3, r1
 158 000c 1360     		str	r3, [r2]
 323:../../../auto/rev0/Drivers/STM32F1xx_HAL_Driver/Src/stm32f1xx_hal_pwr.c ****   
 324:../../../auto/rev0/Drivers/STM32F1xx_HAL_Driver/Src/stm32f1xx_hal_pwr.c ****   /* Clear any previous config. Keep it clear if no event or IT mode is selected */
 325:../../../auto/rev0/Drivers/STM32F1xx_HAL_Driver/Src/stm32f1xx_hal_pwr.c ****   __HAL_PWR_PVD_EXTI_DISABLE_EVENT();
 159              		.loc 1 325 3 view .LVU20
 160 000e 1C4B     		ldr	r3, .L16+4
 161 0010 5A68     		ldr	r2, [r3, #4]
 162 0012 22F48032 		bic	r2, r2, #65536
 163 0016 5A60     		str	r2, [r3, #4]
 326:../../../auto/rev0/Drivers/STM32F1xx_HAL_Driver/Src/stm32f1xx_hal_pwr.c ****   __HAL_PWR_PVD_EXTI_DISABLE_IT();
 164              		.loc 1 326 3 view .LVU21
 165 0018 1A68     		ldr	r2, [r3]
 166 001a 22F48032 		bic	r2, r2, #65536
 167 001e 1A60     		str	r2, [r3]
 327:../../../auto/rev0/Drivers/STM32F1xx_HAL_Driver/Src/stm32f1xx_hal_pwr.c ****   __HAL_PWR_PVD_EXTI_DISABLE_FALLING_EDGE(); 
 168              		.loc 1 327 3 view .LVU22
 169 0020 DA68     		ldr	r2, [r3, #12]
 170 0022 22F48032 		bic	r2, r2, #65536
 171 0026 DA60     		str	r2, [r3, #12]
 328:../../../auto/rev0/Drivers/STM32F1xx_HAL_Driver/Src/stm32f1xx_hal_pwr.c ****   __HAL_PWR_PVD_EXTI_DISABLE_RISING_EDGE();
 172              		.loc 1 328 3 view .LVU23
 173 0028 9A68     		ldr	r2, [r3, #8]
 174 002a 22F48032 		bic	r2, r2, #65536
 175 002e 9A60     		str	r2, [r3, #8]
 329:../../../auto/rev0/Drivers/STM32F1xx_HAL_Driver/Src/stm32f1xx_hal_pwr.c **** 
 330:../../../auto/rev0/Drivers/STM32F1xx_HAL_Driver/Src/stm32f1xx_hal_pwr.c ****   /* Configure interrupt mode */
 331:../../../auto/rev0/Drivers/STM32F1xx_HAL_Driver/Src/stm32f1xx_hal_pwr.c ****   if((sConfigPVD->Mode & PVD_MODE_IT) == PVD_MODE_IT)
 176              		.loc 1 331 3 view .LVU24
 177              		.loc 1 331 17 is_stmt 0 view .LVU25
 178 0030 4368     		ldr	r3, [r0, #4]
 179              		.loc 1 331 5 view .LVU26
 180 0032 13F4803F 		tst	r3, #65536
 181 0036 04D0     		beq	.L12
 332:../../../auto/rev0/Drivers/STM32F1xx_HAL_Driver/Src/stm32f1xx_hal_pwr.c ****   {
 333:../../../auto/rev0/Drivers/STM32F1xx_HAL_Driver/Src/stm32f1xx_hal_pwr.c ****     __HAL_PWR_PVD_EXTI_ENABLE_IT();
 182              		.loc 1 333 5 is_stmt 1 view .LVU27
 183 0038 114A     		ldr	r2, .L16+4
 184 003a 1368     		ldr	r3, [r2]
 185 003c 43F48033 		orr	r3, r3, #65536
 186 0040 1360     		str	r3, [r2]
 187              	.L12:
 334:../../../auto/rev0/Drivers/STM32F1xx_HAL_Driver/Src/stm32f1xx_hal_pwr.c ****   }
 335:../../../auto/rev0/Drivers/STM32F1xx_HAL_Driver/Src/stm32f1xx_hal_pwr.c ****   
ARM GAS  C:\Users\SRY19_~1\AppData\Local\Temp\ccOeh7I2.s 			page 10


 336:../../../auto/rev0/Drivers/STM32F1xx_HAL_Driver/Src/stm32f1xx_hal_pwr.c ****   /* Configure event mode */
 337:../../../auto/rev0/Drivers/STM32F1xx_HAL_Driver/Src/stm32f1xx_hal_pwr.c ****   if((sConfigPVD->Mode & PVD_MODE_EVT) == PVD_MODE_EVT)
 188              		.loc 1 337 3 view .LVU28
 189              		.loc 1 337 17 is_stmt 0 view .LVU29
 190 0042 4368     		ldr	r3, [r0, #4]
 191              		.loc 1 337 5 view .LVU30
 192 0044 13F4003F 		tst	r3, #131072
 193 0048 04D0     		beq	.L13
 338:../../../auto/rev0/Drivers/STM32F1xx_HAL_Driver/Src/stm32f1xx_hal_pwr.c ****   {
 339:../../../auto/rev0/Drivers/STM32F1xx_HAL_Driver/Src/stm32f1xx_hal_pwr.c ****     __HAL_PWR_PVD_EXTI_ENABLE_EVENT();
 194              		.loc 1 339 5 is_stmt 1 view .LVU31
 195 004a 0D4A     		ldr	r2, .L16+4
 196 004c 5368     		ldr	r3, [r2, #4]
 197 004e 43F48033 		orr	r3, r3, #65536
 198 0052 5360     		str	r3, [r2, #4]
 199              	.L13:
 340:../../../auto/rev0/Drivers/STM32F1xx_HAL_Driver/Src/stm32f1xx_hal_pwr.c ****   }
 341:../../../auto/rev0/Drivers/STM32F1xx_HAL_Driver/Src/stm32f1xx_hal_pwr.c ****   
 342:../../../auto/rev0/Drivers/STM32F1xx_HAL_Driver/Src/stm32f1xx_hal_pwr.c ****   /* Configure the edge */
 343:../../../auto/rev0/Drivers/STM32F1xx_HAL_Driver/Src/stm32f1xx_hal_pwr.c ****   if((sConfigPVD->Mode & PVD_RISING_EDGE) == PVD_RISING_EDGE)
 200              		.loc 1 343 3 view .LVU32
 201              		.loc 1 343 17 is_stmt 0 view .LVU33
 202 0054 4368     		ldr	r3, [r0, #4]
 203              		.loc 1 343 5 view .LVU34
 204 0056 13F0010F 		tst	r3, #1
 205 005a 04D0     		beq	.L14
 344:../../../auto/rev0/Drivers/STM32F1xx_HAL_Driver/Src/stm32f1xx_hal_pwr.c ****   {
 345:../../../auto/rev0/Drivers/STM32F1xx_HAL_Driver/Src/stm32f1xx_hal_pwr.c ****     __HAL_PWR_PVD_EXTI_ENABLE_RISING_EDGE();
 206              		.loc 1 345 5 is_stmt 1 view .LVU35
 207 005c 084A     		ldr	r2, .L16+4
 208 005e 9368     		ldr	r3, [r2, #8]
 209 0060 43F48033 		orr	r3, r3, #65536
 210 0064 9360     		str	r3, [r2, #8]
 211              	.L14:
 346:../../../auto/rev0/Drivers/STM32F1xx_HAL_Driver/Src/stm32f1xx_hal_pwr.c ****   }
 347:../../../auto/rev0/Drivers/STM32F1xx_HAL_Driver/Src/stm32f1xx_hal_pwr.c ****   
 348:../../../auto/rev0/Drivers/STM32F1xx_HAL_Driver/Src/stm32f1xx_hal_pwr.c ****   if((sConfigPVD->Mode & PVD_FALLING_EDGE) == PVD_FALLING_EDGE)
 212              		.loc 1 348 3 view .LVU36
 213              		.loc 1 348 17 is_stmt 0 view .LVU37
 214 0066 4368     		ldr	r3, [r0, #4]
 215              		.loc 1 348 5 view .LVU38
 216 0068 13F0020F 		tst	r3, #2
 217 006c 04D0     		beq	.L11
 349:../../../auto/rev0/Drivers/STM32F1xx_HAL_Driver/Src/stm32f1xx_hal_pwr.c ****   {
 350:../../../auto/rev0/Drivers/STM32F1xx_HAL_Driver/Src/stm32f1xx_hal_pwr.c ****     __HAL_PWR_PVD_EXTI_ENABLE_FALLING_EDGE();
 218              		.loc 1 350 5 is_stmt 1 view .LVU39
 219 006e 044A     		ldr	r2, .L16+4
 220 0070 D368     		ldr	r3, [r2, #12]
 221 0072 43F48033 		orr	r3, r3, #65536
 222 0076 D360     		str	r3, [r2, #12]
 223              	.L11:
 351:../../../auto/rev0/Drivers/STM32F1xx_HAL_Driver/Src/stm32f1xx_hal_pwr.c ****   }
 352:../../../auto/rev0/Drivers/STM32F1xx_HAL_Driver/Src/stm32f1xx_hal_pwr.c **** }
 224              		.loc 1 352 1 is_stmt 0 view .LVU40
 225 0078 7047     		bx	lr
 226              	.L17:
 227 007a 00BF     		.align	2
ARM GAS  C:\Users\SRY19_~1\AppData\Local\Temp\ccOeh7I2.s 			page 11


 228              	.L16:
 229 007c 00700040 		.word	1073770496
 230 0080 00040140 		.word	1073808384
 231              		.cfi_endproc
 232              	.LFE69:
 234              		.section	.text.HAL_PWR_EnablePVD,"ax",%progbits
 235              		.align	1
 236              		.global	HAL_PWR_EnablePVD
 237              		.syntax unified
 238              		.thumb
 239              		.thumb_func
 241              	HAL_PWR_EnablePVD:
 242              	.LFB70:
 353:../../../auto/rev0/Drivers/STM32F1xx_HAL_Driver/Src/stm32f1xx_hal_pwr.c **** 
 354:../../../auto/rev0/Drivers/STM32F1xx_HAL_Driver/Src/stm32f1xx_hal_pwr.c **** /**
 355:../../../auto/rev0/Drivers/STM32F1xx_HAL_Driver/Src/stm32f1xx_hal_pwr.c ****   * @brief  Enables the Power Voltage Detector(PVD).
 356:../../../auto/rev0/Drivers/STM32F1xx_HAL_Driver/Src/stm32f1xx_hal_pwr.c ****   * @retval None
 357:../../../auto/rev0/Drivers/STM32F1xx_HAL_Driver/Src/stm32f1xx_hal_pwr.c ****   */
 358:../../../auto/rev0/Drivers/STM32F1xx_HAL_Driver/Src/stm32f1xx_hal_pwr.c **** void HAL_PWR_EnablePVD(void)
 359:../../../auto/rev0/Drivers/STM32F1xx_HAL_Driver/Src/stm32f1xx_hal_pwr.c **** {
 243              		.loc 1 359 1 is_stmt 1 view -0
 244              		.cfi_startproc
 245              		@ args = 0, pretend = 0, frame = 0
 246              		@ frame_needed = 0, uses_anonymous_args = 0
 247              		@ link register save eliminated.
 360:../../../auto/rev0/Drivers/STM32F1xx_HAL_Driver/Src/stm32f1xx_hal_pwr.c ****   /* Enable the power voltage detector */
 361:../../../auto/rev0/Drivers/STM32F1xx_HAL_Driver/Src/stm32f1xx_hal_pwr.c ****   *(__IO uint32_t *) CR_PVDE_BB = (uint32_t)ENABLE;
 248              		.loc 1 361 3 view .LVU42
 249              		.loc 1 361 33 is_stmt 0 view .LVU43
 250 0000 014B     		ldr	r3, .L19
 251 0002 0122     		movs	r2, #1
 252 0004 1A61     		str	r2, [r3, #16]
 362:../../../auto/rev0/Drivers/STM32F1xx_HAL_Driver/Src/stm32f1xx_hal_pwr.c **** }
 253              		.loc 1 362 1 view .LVU44
 254 0006 7047     		bx	lr
 255              	.L20:
 256              		.align	2
 257              	.L19:
 258 0008 00000E42 		.word	1108213760
 259              		.cfi_endproc
 260              	.LFE70:
 262              		.section	.text.HAL_PWR_DisablePVD,"ax",%progbits
 263              		.align	1
 264              		.global	HAL_PWR_DisablePVD
 265              		.syntax unified
 266              		.thumb
 267              		.thumb_func
 269              	HAL_PWR_DisablePVD:
 270              	.LFB71:
 363:../../../auto/rev0/Drivers/STM32F1xx_HAL_Driver/Src/stm32f1xx_hal_pwr.c **** 
 364:../../../auto/rev0/Drivers/STM32F1xx_HAL_Driver/Src/stm32f1xx_hal_pwr.c **** /**
 365:../../../auto/rev0/Drivers/STM32F1xx_HAL_Driver/Src/stm32f1xx_hal_pwr.c ****   * @brief  Disables the Power Voltage Detector(PVD).
 366:../../../auto/rev0/Drivers/STM32F1xx_HAL_Driver/Src/stm32f1xx_hal_pwr.c ****   * @retval None
 367:../../../auto/rev0/Drivers/STM32F1xx_HAL_Driver/Src/stm32f1xx_hal_pwr.c ****   */
 368:../../../auto/rev0/Drivers/STM32F1xx_HAL_Driver/Src/stm32f1xx_hal_pwr.c **** void HAL_PWR_DisablePVD(void)
 369:../../../auto/rev0/Drivers/STM32F1xx_HAL_Driver/Src/stm32f1xx_hal_pwr.c **** {
 271              		.loc 1 369 1 is_stmt 1 view -0
ARM GAS  C:\Users\SRY19_~1\AppData\Local\Temp\ccOeh7I2.s 			page 12


 272              		.cfi_startproc
 273              		@ args = 0, pretend = 0, frame = 0
 274              		@ frame_needed = 0, uses_anonymous_args = 0
 275              		@ link register save eliminated.
 370:../../../auto/rev0/Drivers/STM32F1xx_HAL_Driver/Src/stm32f1xx_hal_pwr.c ****   /* Disable the power voltage detector */
 371:../../../auto/rev0/Drivers/STM32F1xx_HAL_Driver/Src/stm32f1xx_hal_pwr.c ****   *(__IO uint32_t *) CR_PVDE_BB = (uint32_t)DISABLE;
 276              		.loc 1 371 3 view .LVU46
 277              		.loc 1 371 33 is_stmt 0 view .LVU47
 278 0000 014B     		ldr	r3, .L22
 279 0002 0022     		movs	r2, #0
 280 0004 1A61     		str	r2, [r3, #16]
 372:../../../auto/rev0/Drivers/STM32F1xx_HAL_Driver/Src/stm32f1xx_hal_pwr.c **** }
 281              		.loc 1 372 1 view .LVU48
 282 0006 7047     		bx	lr
 283              	.L23:
 284              		.align	2
 285              	.L22:
 286 0008 00000E42 		.word	1108213760
 287              		.cfi_endproc
 288              	.LFE71:
 290              		.section	.text.HAL_PWR_EnableWakeUpPin,"ax",%progbits
 291              		.align	1
 292              		.global	HAL_PWR_EnableWakeUpPin
 293              		.syntax unified
 294              		.thumb
 295              		.thumb_func
 297              	HAL_PWR_EnableWakeUpPin:
 298              	.LVL1:
 299              	.LFB72:
 373:../../../auto/rev0/Drivers/STM32F1xx_HAL_Driver/Src/stm32f1xx_hal_pwr.c **** 
 374:../../../auto/rev0/Drivers/STM32F1xx_HAL_Driver/Src/stm32f1xx_hal_pwr.c **** /**
 375:../../../auto/rev0/Drivers/STM32F1xx_HAL_Driver/Src/stm32f1xx_hal_pwr.c ****   * @brief Enables the WakeUp PINx functionality.
 376:../../../auto/rev0/Drivers/STM32F1xx_HAL_Driver/Src/stm32f1xx_hal_pwr.c ****   * @param WakeUpPinx: Specifies the Power Wake-Up pin to enable.
 377:../../../auto/rev0/Drivers/STM32F1xx_HAL_Driver/Src/stm32f1xx_hal_pwr.c ****   *        This parameter can be one of the following values:
 378:../../../auto/rev0/Drivers/STM32F1xx_HAL_Driver/Src/stm32f1xx_hal_pwr.c ****   *           @arg PWR_WAKEUP_PIN1
 379:../../../auto/rev0/Drivers/STM32F1xx_HAL_Driver/Src/stm32f1xx_hal_pwr.c ****   * @retval None
 380:../../../auto/rev0/Drivers/STM32F1xx_HAL_Driver/Src/stm32f1xx_hal_pwr.c ****   */
 381:../../../auto/rev0/Drivers/STM32F1xx_HAL_Driver/Src/stm32f1xx_hal_pwr.c **** void HAL_PWR_EnableWakeUpPin(uint32_t WakeUpPinx)
 382:../../../auto/rev0/Drivers/STM32F1xx_HAL_Driver/Src/stm32f1xx_hal_pwr.c **** {
 300              		.loc 1 382 1 is_stmt 1 view -0
 301              		.cfi_startproc
 302              		@ args = 0, pretend = 0, frame = 0
 303              		@ frame_needed = 0, uses_anonymous_args = 0
 304              		@ link register save eliminated.
 383:../../../auto/rev0/Drivers/STM32F1xx_HAL_Driver/Src/stm32f1xx_hal_pwr.c ****   /* Check the parameter */
 384:../../../auto/rev0/Drivers/STM32F1xx_HAL_Driver/Src/stm32f1xx_hal_pwr.c ****   assert_param(IS_PWR_WAKEUP_PIN(WakeUpPinx));
 305              		.loc 1 384 3 view .LVU50
 385:../../../auto/rev0/Drivers/STM32F1xx_HAL_Driver/Src/stm32f1xx_hal_pwr.c ****   /* Enable the EWUPx pin */
 386:../../../auto/rev0/Drivers/STM32F1xx_HAL_Driver/Src/stm32f1xx_hal_pwr.c ****   *(__IO uint32_t *) CSR_EWUP_BB(WakeUpPinx) = (uint32_t)ENABLE;
 306              		.loc 1 386 3 view .LVU51
 307              	.LBB6:
 308              	.LBI6:
 309              		.file 2 "../../../auto/rev0/Drivers/CMSIS/Include/cmsis_gcc.h"
   1:../../../auto/rev0/Drivers/CMSIS/Include/cmsis_gcc.h **** /**************************************************************************//**
   2:../../../auto/rev0/Drivers/CMSIS/Include/cmsis_gcc.h ****  * @file     cmsis_gcc.h
   3:../../../auto/rev0/Drivers/CMSIS/Include/cmsis_gcc.h ****  * @brief    CMSIS compiler GCC header file
   4:../../../auto/rev0/Drivers/CMSIS/Include/cmsis_gcc.h ****  * @version  V5.0.4
ARM GAS  C:\Users\SRY19_~1\AppData\Local\Temp\ccOeh7I2.s 			page 13


   5:../../../auto/rev0/Drivers/CMSIS/Include/cmsis_gcc.h ****  * @date     09. April 2018
   6:../../../auto/rev0/Drivers/CMSIS/Include/cmsis_gcc.h ****  ******************************************************************************/
   7:../../../auto/rev0/Drivers/CMSIS/Include/cmsis_gcc.h **** /*
   8:../../../auto/rev0/Drivers/CMSIS/Include/cmsis_gcc.h ****  * Copyright (c) 2009-2018 Arm Limited. All rights reserved.
   9:../../../auto/rev0/Drivers/CMSIS/Include/cmsis_gcc.h ****  *
  10:../../../auto/rev0/Drivers/CMSIS/Include/cmsis_gcc.h ****  * SPDX-License-Identifier: Apache-2.0
  11:../../../auto/rev0/Drivers/CMSIS/Include/cmsis_gcc.h ****  *
  12:../../../auto/rev0/Drivers/CMSIS/Include/cmsis_gcc.h ****  * Licensed under the Apache License, Version 2.0 (the License); you may
  13:../../../auto/rev0/Drivers/CMSIS/Include/cmsis_gcc.h ****  * not use this file except in compliance with the License.
  14:../../../auto/rev0/Drivers/CMSIS/Include/cmsis_gcc.h ****  * You may obtain a copy of the License at
  15:../../../auto/rev0/Drivers/CMSIS/Include/cmsis_gcc.h ****  *
  16:../../../auto/rev0/Drivers/CMSIS/Include/cmsis_gcc.h ****  * www.apache.org/licenses/LICENSE-2.0
  17:../../../auto/rev0/Drivers/CMSIS/Include/cmsis_gcc.h ****  *
  18:../../../auto/rev0/Drivers/CMSIS/Include/cmsis_gcc.h ****  * Unless required by applicable law or agreed to in writing, software
  19:../../../auto/rev0/Drivers/CMSIS/Include/cmsis_gcc.h ****  * distributed under the License is distributed on an AS IS BASIS, WITHOUT
  20:../../../auto/rev0/Drivers/CMSIS/Include/cmsis_gcc.h ****  * WARRANTIES OR CONDITIONS OF ANY KIND, either express or implied.
  21:../../../auto/rev0/Drivers/CMSIS/Include/cmsis_gcc.h ****  * See the License for the specific language governing permissions and
  22:../../../auto/rev0/Drivers/CMSIS/Include/cmsis_gcc.h ****  * limitations under the License.
  23:../../../auto/rev0/Drivers/CMSIS/Include/cmsis_gcc.h ****  */
  24:../../../auto/rev0/Drivers/CMSIS/Include/cmsis_gcc.h **** 
  25:../../../auto/rev0/Drivers/CMSIS/Include/cmsis_gcc.h **** #ifndef __CMSIS_GCC_H
  26:../../../auto/rev0/Drivers/CMSIS/Include/cmsis_gcc.h **** #define __CMSIS_GCC_H
  27:../../../auto/rev0/Drivers/CMSIS/Include/cmsis_gcc.h **** 
  28:../../../auto/rev0/Drivers/CMSIS/Include/cmsis_gcc.h **** /* ignore some GCC warnings */
  29:../../../auto/rev0/Drivers/CMSIS/Include/cmsis_gcc.h **** #pragma GCC diagnostic push
  30:../../../auto/rev0/Drivers/CMSIS/Include/cmsis_gcc.h **** #pragma GCC diagnostic ignored "-Wsign-conversion"
  31:../../../auto/rev0/Drivers/CMSIS/Include/cmsis_gcc.h **** #pragma GCC diagnostic ignored "-Wconversion"
  32:../../../auto/rev0/Drivers/CMSIS/Include/cmsis_gcc.h **** #pragma GCC diagnostic ignored "-Wunused-parameter"
  33:../../../auto/rev0/Drivers/CMSIS/Include/cmsis_gcc.h **** 
  34:../../../auto/rev0/Drivers/CMSIS/Include/cmsis_gcc.h **** /* Fallback for __has_builtin */
  35:../../../auto/rev0/Drivers/CMSIS/Include/cmsis_gcc.h **** #ifndef __has_builtin
  36:../../../auto/rev0/Drivers/CMSIS/Include/cmsis_gcc.h ****   #define __has_builtin(x) (0)
  37:../../../auto/rev0/Drivers/CMSIS/Include/cmsis_gcc.h **** #endif
  38:../../../auto/rev0/Drivers/CMSIS/Include/cmsis_gcc.h **** 
  39:../../../auto/rev0/Drivers/CMSIS/Include/cmsis_gcc.h **** /* CMSIS compiler specific defines */
  40:../../../auto/rev0/Drivers/CMSIS/Include/cmsis_gcc.h **** #ifndef   __ASM
  41:../../../auto/rev0/Drivers/CMSIS/Include/cmsis_gcc.h ****   #define __ASM                                  __asm
  42:../../../auto/rev0/Drivers/CMSIS/Include/cmsis_gcc.h **** #endif
  43:../../../auto/rev0/Drivers/CMSIS/Include/cmsis_gcc.h **** #ifndef   __INLINE
  44:../../../auto/rev0/Drivers/CMSIS/Include/cmsis_gcc.h ****   #define __INLINE                               inline
  45:../../../auto/rev0/Drivers/CMSIS/Include/cmsis_gcc.h **** #endif
  46:../../../auto/rev0/Drivers/CMSIS/Include/cmsis_gcc.h **** #ifndef   __STATIC_INLINE
  47:../../../auto/rev0/Drivers/CMSIS/Include/cmsis_gcc.h ****   #define __STATIC_INLINE                        static inline
  48:../../../auto/rev0/Drivers/CMSIS/Include/cmsis_gcc.h **** #endif
  49:../../../auto/rev0/Drivers/CMSIS/Include/cmsis_gcc.h **** #ifndef   __STATIC_FORCEINLINE                 
  50:../../../auto/rev0/Drivers/CMSIS/Include/cmsis_gcc.h ****   #define __STATIC_FORCEINLINE                   __attribute__((always_inline)) static inline
  51:../../../auto/rev0/Drivers/CMSIS/Include/cmsis_gcc.h **** #endif                                           
  52:../../../auto/rev0/Drivers/CMSIS/Include/cmsis_gcc.h **** #ifndef   __NO_RETURN
  53:../../../auto/rev0/Drivers/CMSIS/Include/cmsis_gcc.h ****   #define __NO_RETURN                            __attribute__((__noreturn__))
  54:../../../auto/rev0/Drivers/CMSIS/Include/cmsis_gcc.h **** #endif
  55:../../../auto/rev0/Drivers/CMSIS/Include/cmsis_gcc.h **** #ifndef   __USED
  56:../../../auto/rev0/Drivers/CMSIS/Include/cmsis_gcc.h ****   #define __USED                                 __attribute__((used))
  57:../../../auto/rev0/Drivers/CMSIS/Include/cmsis_gcc.h **** #endif
  58:../../../auto/rev0/Drivers/CMSIS/Include/cmsis_gcc.h **** #ifndef   __WEAK
  59:../../../auto/rev0/Drivers/CMSIS/Include/cmsis_gcc.h ****   #define __WEAK                                 __attribute__((weak))
  60:../../../auto/rev0/Drivers/CMSIS/Include/cmsis_gcc.h **** #endif
  61:../../../auto/rev0/Drivers/CMSIS/Include/cmsis_gcc.h **** #ifndef   __PACKED
ARM GAS  C:\Users\SRY19_~1\AppData\Local\Temp\ccOeh7I2.s 			page 14


  62:../../../auto/rev0/Drivers/CMSIS/Include/cmsis_gcc.h ****   #define __PACKED                               __attribute__((packed, aligned(1)))
  63:../../../auto/rev0/Drivers/CMSIS/Include/cmsis_gcc.h **** #endif
  64:../../../auto/rev0/Drivers/CMSIS/Include/cmsis_gcc.h **** #ifndef   __PACKED_STRUCT
  65:../../../auto/rev0/Drivers/CMSIS/Include/cmsis_gcc.h ****   #define __PACKED_STRUCT                        struct __attribute__((packed, aligned(1)))
  66:../../../auto/rev0/Drivers/CMSIS/Include/cmsis_gcc.h **** #endif
  67:../../../auto/rev0/Drivers/CMSIS/Include/cmsis_gcc.h **** #ifndef   __PACKED_UNION
  68:../../../auto/rev0/Drivers/CMSIS/Include/cmsis_gcc.h ****   #define __PACKED_UNION                         union __attribute__((packed, aligned(1)))
  69:../../../auto/rev0/Drivers/CMSIS/Include/cmsis_gcc.h **** #endif
  70:../../../auto/rev0/Drivers/CMSIS/Include/cmsis_gcc.h **** #ifndef   __UNALIGNED_UINT32        /* deprecated */
  71:../../../auto/rev0/Drivers/CMSIS/Include/cmsis_gcc.h ****   #pragma GCC diagnostic push
  72:../../../auto/rev0/Drivers/CMSIS/Include/cmsis_gcc.h ****   #pragma GCC diagnostic ignored "-Wpacked"
  73:../../../auto/rev0/Drivers/CMSIS/Include/cmsis_gcc.h ****   #pragma GCC diagnostic ignored "-Wattributes"
  74:../../../auto/rev0/Drivers/CMSIS/Include/cmsis_gcc.h ****   struct __attribute__((packed)) T_UINT32 { uint32_t v; };
  75:../../../auto/rev0/Drivers/CMSIS/Include/cmsis_gcc.h ****   #pragma GCC diagnostic pop
  76:../../../auto/rev0/Drivers/CMSIS/Include/cmsis_gcc.h ****   #define __UNALIGNED_UINT32(x)                  (((struct T_UINT32 *)(x))->v)
  77:../../../auto/rev0/Drivers/CMSIS/Include/cmsis_gcc.h **** #endif
  78:../../../auto/rev0/Drivers/CMSIS/Include/cmsis_gcc.h **** #ifndef   __UNALIGNED_UINT16_WRITE
  79:../../../auto/rev0/Drivers/CMSIS/Include/cmsis_gcc.h ****   #pragma GCC diagnostic push
  80:../../../auto/rev0/Drivers/CMSIS/Include/cmsis_gcc.h ****   #pragma GCC diagnostic ignored "-Wpacked"
  81:../../../auto/rev0/Drivers/CMSIS/Include/cmsis_gcc.h ****   #pragma GCC diagnostic ignored "-Wattributes"
  82:../../../auto/rev0/Drivers/CMSIS/Include/cmsis_gcc.h ****   __PACKED_STRUCT T_UINT16_WRITE { uint16_t v; };
  83:../../../auto/rev0/Drivers/CMSIS/Include/cmsis_gcc.h ****   #pragma GCC diagnostic pop
  84:../../../auto/rev0/Drivers/CMSIS/Include/cmsis_gcc.h ****   #define __UNALIGNED_UINT16_WRITE(addr, val)    (void)((((struct T_UINT16_WRITE *)(void *)(addr))-
  85:../../../auto/rev0/Drivers/CMSIS/Include/cmsis_gcc.h **** #endif
  86:../../../auto/rev0/Drivers/CMSIS/Include/cmsis_gcc.h **** #ifndef   __UNALIGNED_UINT16_READ
  87:../../../auto/rev0/Drivers/CMSIS/Include/cmsis_gcc.h ****   #pragma GCC diagnostic push
  88:../../../auto/rev0/Drivers/CMSIS/Include/cmsis_gcc.h ****   #pragma GCC diagnostic ignored "-Wpacked"
  89:../../../auto/rev0/Drivers/CMSIS/Include/cmsis_gcc.h ****   #pragma GCC diagnostic ignored "-Wattributes"
  90:../../../auto/rev0/Drivers/CMSIS/Include/cmsis_gcc.h ****   __PACKED_STRUCT T_UINT16_READ { uint16_t v; };
  91:../../../auto/rev0/Drivers/CMSIS/Include/cmsis_gcc.h ****   #pragma GCC diagnostic pop
  92:../../../auto/rev0/Drivers/CMSIS/Include/cmsis_gcc.h ****   #define __UNALIGNED_UINT16_READ(addr)          (((const struct T_UINT16_READ *)(const void *)(add
  93:../../../auto/rev0/Drivers/CMSIS/Include/cmsis_gcc.h **** #endif
  94:../../../auto/rev0/Drivers/CMSIS/Include/cmsis_gcc.h **** #ifndef   __UNALIGNED_UINT32_WRITE
  95:../../../auto/rev0/Drivers/CMSIS/Include/cmsis_gcc.h ****   #pragma GCC diagnostic push
  96:../../../auto/rev0/Drivers/CMSIS/Include/cmsis_gcc.h ****   #pragma GCC diagnostic ignored "-Wpacked"
  97:../../../auto/rev0/Drivers/CMSIS/Include/cmsis_gcc.h ****   #pragma GCC diagnostic ignored "-Wattributes"
  98:../../../auto/rev0/Drivers/CMSIS/Include/cmsis_gcc.h ****   __PACKED_STRUCT T_UINT32_WRITE { uint32_t v; };
  99:../../../auto/rev0/Drivers/CMSIS/Include/cmsis_gcc.h ****   #pragma GCC diagnostic pop
 100:../../../auto/rev0/Drivers/CMSIS/Include/cmsis_gcc.h ****   #define __UNALIGNED_UINT32_WRITE(addr, val)    (void)((((struct T_UINT32_WRITE *)(void *)(addr))-
 101:../../../auto/rev0/Drivers/CMSIS/Include/cmsis_gcc.h **** #endif
 102:../../../auto/rev0/Drivers/CMSIS/Include/cmsis_gcc.h **** #ifndef   __UNALIGNED_UINT32_READ
 103:../../../auto/rev0/Drivers/CMSIS/Include/cmsis_gcc.h ****   #pragma GCC diagnostic push
 104:../../../auto/rev0/Drivers/CMSIS/Include/cmsis_gcc.h ****   #pragma GCC diagnostic ignored "-Wpacked"
 105:../../../auto/rev0/Drivers/CMSIS/Include/cmsis_gcc.h ****   #pragma GCC diagnostic ignored "-Wattributes"
 106:../../../auto/rev0/Drivers/CMSIS/Include/cmsis_gcc.h ****   __PACKED_STRUCT T_UINT32_READ { uint32_t v; };
 107:../../../auto/rev0/Drivers/CMSIS/Include/cmsis_gcc.h ****   #pragma GCC diagnostic pop
 108:../../../auto/rev0/Drivers/CMSIS/Include/cmsis_gcc.h ****   #define __UNALIGNED_UINT32_READ(addr)          (((const struct T_UINT32_READ *)(const void *)(add
 109:../../../auto/rev0/Drivers/CMSIS/Include/cmsis_gcc.h **** #endif
 110:../../../auto/rev0/Drivers/CMSIS/Include/cmsis_gcc.h **** #ifndef   __ALIGNED
 111:../../../auto/rev0/Drivers/CMSIS/Include/cmsis_gcc.h ****   #define __ALIGNED(x)                           __attribute__((aligned(x)))
 112:../../../auto/rev0/Drivers/CMSIS/Include/cmsis_gcc.h **** #endif
 113:../../../auto/rev0/Drivers/CMSIS/Include/cmsis_gcc.h **** #ifndef   __RESTRICT
 114:../../../auto/rev0/Drivers/CMSIS/Include/cmsis_gcc.h ****   #define __RESTRICT                             __restrict
 115:../../../auto/rev0/Drivers/CMSIS/Include/cmsis_gcc.h **** #endif
 116:../../../auto/rev0/Drivers/CMSIS/Include/cmsis_gcc.h **** 
 117:../../../auto/rev0/Drivers/CMSIS/Include/cmsis_gcc.h **** 
 118:../../../auto/rev0/Drivers/CMSIS/Include/cmsis_gcc.h **** /* ###########################  Core Function Access  ########################### */
ARM GAS  C:\Users\SRY19_~1\AppData\Local\Temp\ccOeh7I2.s 			page 15


 119:../../../auto/rev0/Drivers/CMSIS/Include/cmsis_gcc.h **** /** \ingroup  CMSIS_Core_FunctionInterface
 120:../../../auto/rev0/Drivers/CMSIS/Include/cmsis_gcc.h ****     \defgroup CMSIS_Core_RegAccFunctions CMSIS Core Register Access Functions
 121:../../../auto/rev0/Drivers/CMSIS/Include/cmsis_gcc.h ****   @{
 122:../../../auto/rev0/Drivers/CMSIS/Include/cmsis_gcc.h ****  */
 123:../../../auto/rev0/Drivers/CMSIS/Include/cmsis_gcc.h **** 
 124:../../../auto/rev0/Drivers/CMSIS/Include/cmsis_gcc.h **** /**
 125:../../../auto/rev0/Drivers/CMSIS/Include/cmsis_gcc.h ****   \brief   Enable IRQ Interrupts
 126:../../../auto/rev0/Drivers/CMSIS/Include/cmsis_gcc.h ****   \details Enables IRQ interrupts by clearing the I-bit in the CPSR.
 127:../../../auto/rev0/Drivers/CMSIS/Include/cmsis_gcc.h ****            Can only be executed in Privileged modes.
 128:../../../auto/rev0/Drivers/CMSIS/Include/cmsis_gcc.h ****  */
 129:../../../auto/rev0/Drivers/CMSIS/Include/cmsis_gcc.h **** __STATIC_FORCEINLINE void __enable_irq(void)
 130:../../../auto/rev0/Drivers/CMSIS/Include/cmsis_gcc.h **** {
 131:../../../auto/rev0/Drivers/CMSIS/Include/cmsis_gcc.h ****   __ASM volatile ("cpsie i" : : : "memory");
 132:../../../auto/rev0/Drivers/CMSIS/Include/cmsis_gcc.h **** }
 133:../../../auto/rev0/Drivers/CMSIS/Include/cmsis_gcc.h **** 
 134:../../../auto/rev0/Drivers/CMSIS/Include/cmsis_gcc.h **** 
 135:../../../auto/rev0/Drivers/CMSIS/Include/cmsis_gcc.h **** /**
 136:../../../auto/rev0/Drivers/CMSIS/Include/cmsis_gcc.h ****   \brief   Disable IRQ Interrupts
 137:../../../auto/rev0/Drivers/CMSIS/Include/cmsis_gcc.h ****   \details Disables IRQ interrupts by setting the I-bit in the CPSR.
 138:../../../auto/rev0/Drivers/CMSIS/Include/cmsis_gcc.h ****            Can only be executed in Privileged modes.
 139:../../../auto/rev0/Drivers/CMSIS/Include/cmsis_gcc.h ****  */
 140:../../../auto/rev0/Drivers/CMSIS/Include/cmsis_gcc.h **** __STATIC_FORCEINLINE void __disable_irq(void)
 141:../../../auto/rev0/Drivers/CMSIS/Include/cmsis_gcc.h **** {
 142:../../../auto/rev0/Drivers/CMSIS/Include/cmsis_gcc.h ****   __ASM volatile ("cpsid i" : : : "memory");
 143:../../../auto/rev0/Drivers/CMSIS/Include/cmsis_gcc.h **** }
 144:../../../auto/rev0/Drivers/CMSIS/Include/cmsis_gcc.h **** 
 145:../../../auto/rev0/Drivers/CMSIS/Include/cmsis_gcc.h **** 
 146:../../../auto/rev0/Drivers/CMSIS/Include/cmsis_gcc.h **** /**
 147:../../../auto/rev0/Drivers/CMSIS/Include/cmsis_gcc.h ****   \brief   Get Control Register
 148:../../../auto/rev0/Drivers/CMSIS/Include/cmsis_gcc.h ****   \details Returns the content of the Control Register.
 149:../../../auto/rev0/Drivers/CMSIS/Include/cmsis_gcc.h ****   \return               Control Register value
 150:../../../auto/rev0/Drivers/CMSIS/Include/cmsis_gcc.h ****  */
 151:../../../auto/rev0/Drivers/CMSIS/Include/cmsis_gcc.h **** __STATIC_FORCEINLINE uint32_t __get_CONTROL(void)
 152:../../../auto/rev0/Drivers/CMSIS/Include/cmsis_gcc.h **** {
 153:../../../auto/rev0/Drivers/CMSIS/Include/cmsis_gcc.h ****   uint32_t result;
 154:../../../auto/rev0/Drivers/CMSIS/Include/cmsis_gcc.h **** 
 155:../../../auto/rev0/Drivers/CMSIS/Include/cmsis_gcc.h ****   __ASM volatile ("MRS %0, control" : "=r" (result) );
 156:../../../auto/rev0/Drivers/CMSIS/Include/cmsis_gcc.h ****   return(result);
 157:../../../auto/rev0/Drivers/CMSIS/Include/cmsis_gcc.h **** }
 158:../../../auto/rev0/Drivers/CMSIS/Include/cmsis_gcc.h **** 
 159:../../../auto/rev0/Drivers/CMSIS/Include/cmsis_gcc.h **** 
 160:../../../auto/rev0/Drivers/CMSIS/Include/cmsis_gcc.h **** #if (defined (__ARM_FEATURE_CMSE ) && (__ARM_FEATURE_CMSE == 3))
 161:../../../auto/rev0/Drivers/CMSIS/Include/cmsis_gcc.h **** /**
 162:../../../auto/rev0/Drivers/CMSIS/Include/cmsis_gcc.h ****   \brief   Get Control Register (non-secure)
 163:../../../auto/rev0/Drivers/CMSIS/Include/cmsis_gcc.h ****   \details Returns the content of the non-secure Control Register when in secure mode.
 164:../../../auto/rev0/Drivers/CMSIS/Include/cmsis_gcc.h ****   \return               non-secure Control Register value
 165:../../../auto/rev0/Drivers/CMSIS/Include/cmsis_gcc.h ****  */
 166:../../../auto/rev0/Drivers/CMSIS/Include/cmsis_gcc.h **** __STATIC_FORCEINLINE uint32_t __TZ_get_CONTROL_NS(void)
 167:../../../auto/rev0/Drivers/CMSIS/Include/cmsis_gcc.h **** {
 168:../../../auto/rev0/Drivers/CMSIS/Include/cmsis_gcc.h ****   uint32_t result;
 169:../../../auto/rev0/Drivers/CMSIS/Include/cmsis_gcc.h **** 
 170:../../../auto/rev0/Drivers/CMSIS/Include/cmsis_gcc.h ****   __ASM volatile ("MRS %0, control_ns" : "=r" (result) );
 171:../../../auto/rev0/Drivers/CMSIS/Include/cmsis_gcc.h ****   return(result);
 172:../../../auto/rev0/Drivers/CMSIS/Include/cmsis_gcc.h **** }
 173:../../../auto/rev0/Drivers/CMSIS/Include/cmsis_gcc.h **** #endif
 174:../../../auto/rev0/Drivers/CMSIS/Include/cmsis_gcc.h **** 
 175:../../../auto/rev0/Drivers/CMSIS/Include/cmsis_gcc.h **** 
ARM GAS  C:\Users\SRY19_~1\AppData\Local\Temp\ccOeh7I2.s 			page 16


 176:../../../auto/rev0/Drivers/CMSIS/Include/cmsis_gcc.h **** /**
 177:../../../auto/rev0/Drivers/CMSIS/Include/cmsis_gcc.h ****   \brief   Set Control Register
 178:../../../auto/rev0/Drivers/CMSIS/Include/cmsis_gcc.h ****   \details Writes the given value to the Control Register.
 179:../../../auto/rev0/Drivers/CMSIS/Include/cmsis_gcc.h ****   \param [in]    control  Control Register value to set
 180:../../../auto/rev0/Drivers/CMSIS/Include/cmsis_gcc.h ****  */
 181:../../../auto/rev0/Drivers/CMSIS/Include/cmsis_gcc.h **** __STATIC_FORCEINLINE void __set_CONTROL(uint32_t control)
 182:../../../auto/rev0/Drivers/CMSIS/Include/cmsis_gcc.h **** {
 183:../../../auto/rev0/Drivers/CMSIS/Include/cmsis_gcc.h ****   __ASM volatile ("MSR control, %0" : : "r" (control) : "memory");
 184:../../../auto/rev0/Drivers/CMSIS/Include/cmsis_gcc.h **** }
 185:../../../auto/rev0/Drivers/CMSIS/Include/cmsis_gcc.h **** 
 186:../../../auto/rev0/Drivers/CMSIS/Include/cmsis_gcc.h **** 
 187:../../../auto/rev0/Drivers/CMSIS/Include/cmsis_gcc.h **** #if (defined (__ARM_FEATURE_CMSE ) && (__ARM_FEATURE_CMSE == 3))
 188:../../../auto/rev0/Drivers/CMSIS/Include/cmsis_gcc.h **** /**
 189:../../../auto/rev0/Drivers/CMSIS/Include/cmsis_gcc.h ****   \brief   Set Control Register (non-secure)
 190:../../../auto/rev0/Drivers/CMSIS/Include/cmsis_gcc.h ****   \details Writes the given value to the non-secure Control Register when in secure state.
 191:../../../auto/rev0/Drivers/CMSIS/Include/cmsis_gcc.h ****   \param [in]    control  Control Register value to set
 192:../../../auto/rev0/Drivers/CMSIS/Include/cmsis_gcc.h ****  */
 193:../../../auto/rev0/Drivers/CMSIS/Include/cmsis_gcc.h **** __STATIC_FORCEINLINE void __TZ_set_CONTROL_NS(uint32_t control)
 194:../../../auto/rev0/Drivers/CMSIS/Include/cmsis_gcc.h **** {
 195:../../../auto/rev0/Drivers/CMSIS/Include/cmsis_gcc.h ****   __ASM volatile ("MSR control_ns, %0" : : "r" (control) : "memory");
 196:../../../auto/rev0/Drivers/CMSIS/Include/cmsis_gcc.h **** }
 197:../../../auto/rev0/Drivers/CMSIS/Include/cmsis_gcc.h **** #endif
 198:../../../auto/rev0/Drivers/CMSIS/Include/cmsis_gcc.h **** 
 199:../../../auto/rev0/Drivers/CMSIS/Include/cmsis_gcc.h **** 
 200:../../../auto/rev0/Drivers/CMSIS/Include/cmsis_gcc.h **** /**
 201:../../../auto/rev0/Drivers/CMSIS/Include/cmsis_gcc.h ****   \brief   Get IPSR Register
 202:../../../auto/rev0/Drivers/CMSIS/Include/cmsis_gcc.h ****   \details Returns the content of the IPSR Register.
 203:../../../auto/rev0/Drivers/CMSIS/Include/cmsis_gcc.h ****   \return               IPSR Register value
 204:../../../auto/rev0/Drivers/CMSIS/Include/cmsis_gcc.h ****  */
 205:../../../auto/rev0/Drivers/CMSIS/Include/cmsis_gcc.h **** __STATIC_FORCEINLINE uint32_t __get_IPSR(void)
 206:../../../auto/rev0/Drivers/CMSIS/Include/cmsis_gcc.h **** {
 207:../../../auto/rev0/Drivers/CMSIS/Include/cmsis_gcc.h ****   uint32_t result;
 208:../../../auto/rev0/Drivers/CMSIS/Include/cmsis_gcc.h **** 
 209:../../../auto/rev0/Drivers/CMSIS/Include/cmsis_gcc.h ****   __ASM volatile ("MRS %0, ipsr" : "=r" (result) );
 210:../../../auto/rev0/Drivers/CMSIS/Include/cmsis_gcc.h ****   return(result);
 211:../../../auto/rev0/Drivers/CMSIS/Include/cmsis_gcc.h **** }
 212:../../../auto/rev0/Drivers/CMSIS/Include/cmsis_gcc.h **** 
 213:../../../auto/rev0/Drivers/CMSIS/Include/cmsis_gcc.h **** 
 214:../../../auto/rev0/Drivers/CMSIS/Include/cmsis_gcc.h **** /**
 215:../../../auto/rev0/Drivers/CMSIS/Include/cmsis_gcc.h ****   \brief   Get APSR Register
 216:../../../auto/rev0/Drivers/CMSIS/Include/cmsis_gcc.h ****   \details Returns the content of the APSR Register.
 217:../../../auto/rev0/Drivers/CMSIS/Include/cmsis_gcc.h ****   \return               APSR Register value
 218:../../../auto/rev0/Drivers/CMSIS/Include/cmsis_gcc.h ****  */
 219:../../../auto/rev0/Drivers/CMSIS/Include/cmsis_gcc.h **** __STATIC_FORCEINLINE uint32_t __get_APSR(void)
 220:../../../auto/rev0/Drivers/CMSIS/Include/cmsis_gcc.h **** {
 221:../../../auto/rev0/Drivers/CMSIS/Include/cmsis_gcc.h ****   uint32_t result;
 222:../../../auto/rev0/Drivers/CMSIS/Include/cmsis_gcc.h **** 
 223:../../../auto/rev0/Drivers/CMSIS/Include/cmsis_gcc.h ****   __ASM volatile ("MRS %0, apsr" : "=r" (result) );
 224:../../../auto/rev0/Drivers/CMSIS/Include/cmsis_gcc.h ****   return(result);
 225:../../../auto/rev0/Drivers/CMSIS/Include/cmsis_gcc.h **** }
 226:../../../auto/rev0/Drivers/CMSIS/Include/cmsis_gcc.h **** 
 227:../../../auto/rev0/Drivers/CMSIS/Include/cmsis_gcc.h **** 
 228:../../../auto/rev0/Drivers/CMSIS/Include/cmsis_gcc.h **** /**
 229:../../../auto/rev0/Drivers/CMSIS/Include/cmsis_gcc.h ****   \brief   Get xPSR Register
 230:../../../auto/rev0/Drivers/CMSIS/Include/cmsis_gcc.h ****   \details Returns the content of the xPSR Register.
 231:../../../auto/rev0/Drivers/CMSIS/Include/cmsis_gcc.h ****   \return               xPSR Register value
 232:../../../auto/rev0/Drivers/CMSIS/Include/cmsis_gcc.h ****  */
ARM GAS  C:\Users\SRY19_~1\AppData\Local\Temp\ccOeh7I2.s 			page 17


 233:../../../auto/rev0/Drivers/CMSIS/Include/cmsis_gcc.h **** __STATIC_FORCEINLINE uint32_t __get_xPSR(void)
 234:../../../auto/rev0/Drivers/CMSIS/Include/cmsis_gcc.h **** {
 235:../../../auto/rev0/Drivers/CMSIS/Include/cmsis_gcc.h ****   uint32_t result;
 236:../../../auto/rev0/Drivers/CMSIS/Include/cmsis_gcc.h **** 
 237:../../../auto/rev0/Drivers/CMSIS/Include/cmsis_gcc.h ****   __ASM volatile ("MRS %0, xpsr" : "=r" (result) );
 238:../../../auto/rev0/Drivers/CMSIS/Include/cmsis_gcc.h ****   return(result);
 239:../../../auto/rev0/Drivers/CMSIS/Include/cmsis_gcc.h **** }
 240:../../../auto/rev0/Drivers/CMSIS/Include/cmsis_gcc.h **** 
 241:../../../auto/rev0/Drivers/CMSIS/Include/cmsis_gcc.h **** 
 242:../../../auto/rev0/Drivers/CMSIS/Include/cmsis_gcc.h **** /**
 243:../../../auto/rev0/Drivers/CMSIS/Include/cmsis_gcc.h ****   \brief   Get Process Stack Pointer
 244:../../../auto/rev0/Drivers/CMSIS/Include/cmsis_gcc.h ****   \details Returns the current value of the Process Stack Pointer (PSP).
 245:../../../auto/rev0/Drivers/CMSIS/Include/cmsis_gcc.h ****   \return               PSP Register value
 246:../../../auto/rev0/Drivers/CMSIS/Include/cmsis_gcc.h ****  */
 247:../../../auto/rev0/Drivers/CMSIS/Include/cmsis_gcc.h **** __STATIC_FORCEINLINE uint32_t __get_PSP(void)
 248:../../../auto/rev0/Drivers/CMSIS/Include/cmsis_gcc.h **** {
 249:../../../auto/rev0/Drivers/CMSIS/Include/cmsis_gcc.h ****   uint32_t result;
 250:../../../auto/rev0/Drivers/CMSIS/Include/cmsis_gcc.h **** 
 251:../../../auto/rev0/Drivers/CMSIS/Include/cmsis_gcc.h ****   __ASM volatile ("MRS %0, psp"  : "=r" (result) );
 252:../../../auto/rev0/Drivers/CMSIS/Include/cmsis_gcc.h ****   return(result);
 253:../../../auto/rev0/Drivers/CMSIS/Include/cmsis_gcc.h **** }
 254:../../../auto/rev0/Drivers/CMSIS/Include/cmsis_gcc.h **** 
 255:../../../auto/rev0/Drivers/CMSIS/Include/cmsis_gcc.h **** 
 256:../../../auto/rev0/Drivers/CMSIS/Include/cmsis_gcc.h **** #if (defined (__ARM_FEATURE_CMSE ) && (__ARM_FEATURE_CMSE == 3))
 257:../../../auto/rev0/Drivers/CMSIS/Include/cmsis_gcc.h **** /**
 258:../../../auto/rev0/Drivers/CMSIS/Include/cmsis_gcc.h ****   \brief   Get Process Stack Pointer (non-secure)
 259:../../../auto/rev0/Drivers/CMSIS/Include/cmsis_gcc.h ****   \details Returns the current value of the non-secure Process Stack Pointer (PSP) when in secure s
 260:../../../auto/rev0/Drivers/CMSIS/Include/cmsis_gcc.h ****   \return               PSP Register value
 261:../../../auto/rev0/Drivers/CMSIS/Include/cmsis_gcc.h ****  */
 262:../../../auto/rev0/Drivers/CMSIS/Include/cmsis_gcc.h **** __STATIC_FORCEINLINE uint32_t __TZ_get_PSP_NS(void)
 263:../../../auto/rev0/Drivers/CMSIS/Include/cmsis_gcc.h **** {
 264:../../../auto/rev0/Drivers/CMSIS/Include/cmsis_gcc.h ****   uint32_t result;
 265:../../../auto/rev0/Drivers/CMSIS/Include/cmsis_gcc.h **** 
 266:../../../auto/rev0/Drivers/CMSIS/Include/cmsis_gcc.h ****   __ASM volatile ("MRS %0, psp_ns"  : "=r" (result) );
 267:../../../auto/rev0/Drivers/CMSIS/Include/cmsis_gcc.h ****   return(result);
 268:../../../auto/rev0/Drivers/CMSIS/Include/cmsis_gcc.h **** }
 269:../../../auto/rev0/Drivers/CMSIS/Include/cmsis_gcc.h **** #endif
 270:../../../auto/rev0/Drivers/CMSIS/Include/cmsis_gcc.h **** 
 271:../../../auto/rev0/Drivers/CMSIS/Include/cmsis_gcc.h **** 
 272:../../../auto/rev0/Drivers/CMSIS/Include/cmsis_gcc.h **** /**
 273:../../../auto/rev0/Drivers/CMSIS/Include/cmsis_gcc.h ****   \brief   Set Process Stack Pointer
 274:../../../auto/rev0/Drivers/CMSIS/Include/cmsis_gcc.h ****   \details Assigns the given value to the Process Stack Pointer (PSP).
 275:../../../auto/rev0/Drivers/CMSIS/Include/cmsis_gcc.h ****   \param [in]    topOfProcStack  Process Stack Pointer value to set
 276:../../../auto/rev0/Drivers/CMSIS/Include/cmsis_gcc.h ****  */
 277:../../../auto/rev0/Drivers/CMSIS/Include/cmsis_gcc.h **** __STATIC_FORCEINLINE void __set_PSP(uint32_t topOfProcStack)
 278:../../../auto/rev0/Drivers/CMSIS/Include/cmsis_gcc.h **** {
 279:../../../auto/rev0/Drivers/CMSIS/Include/cmsis_gcc.h ****   __ASM volatile ("MSR psp, %0" : : "r" (topOfProcStack) : );
 280:../../../auto/rev0/Drivers/CMSIS/Include/cmsis_gcc.h **** }
 281:../../../auto/rev0/Drivers/CMSIS/Include/cmsis_gcc.h **** 
 282:../../../auto/rev0/Drivers/CMSIS/Include/cmsis_gcc.h **** 
 283:../../../auto/rev0/Drivers/CMSIS/Include/cmsis_gcc.h **** #if (defined (__ARM_FEATURE_CMSE ) && (__ARM_FEATURE_CMSE == 3))
 284:../../../auto/rev0/Drivers/CMSIS/Include/cmsis_gcc.h **** /**
 285:../../../auto/rev0/Drivers/CMSIS/Include/cmsis_gcc.h ****   \brief   Set Process Stack Pointer (non-secure)
 286:../../../auto/rev0/Drivers/CMSIS/Include/cmsis_gcc.h ****   \details Assigns the given value to the non-secure Process Stack Pointer (PSP) when in secure sta
 287:../../../auto/rev0/Drivers/CMSIS/Include/cmsis_gcc.h ****   \param [in]    topOfProcStack  Process Stack Pointer value to set
 288:../../../auto/rev0/Drivers/CMSIS/Include/cmsis_gcc.h ****  */
 289:../../../auto/rev0/Drivers/CMSIS/Include/cmsis_gcc.h **** __STATIC_FORCEINLINE void __TZ_set_PSP_NS(uint32_t topOfProcStack)
ARM GAS  C:\Users\SRY19_~1\AppData\Local\Temp\ccOeh7I2.s 			page 18


 290:../../../auto/rev0/Drivers/CMSIS/Include/cmsis_gcc.h **** {
 291:../../../auto/rev0/Drivers/CMSIS/Include/cmsis_gcc.h ****   __ASM volatile ("MSR psp_ns, %0" : : "r" (topOfProcStack) : );
 292:../../../auto/rev0/Drivers/CMSIS/Include/cmsis_gcc.h **** }
 293:../../../auto/rev0/Drivers/CMSIS/Include/cmsis_gcc.h **** #endif
 294:../../../auto/rev0/Drivers/CMSIS/Include/cmsis_gcc.h **** 
 295:../../../auto/rev0/Drivers/CMSIS/Include/cmsis_gcc.h **** 
 296:../../../auto/rev0/Drivers/CMSIS/Include/cmsis_gcc.h **** /**
 297:../../../auto/rev0/Drivers/CMSIS/Include/cmsis_gcc.h ****   \brief   Get Main Stack Pointer
 298:../../../auto/rev0/Drivers/CMSIS/Include/cmsis_gcc.h ****   \details Returns the current value of the Main Stack Pointer (MSP).
 299:../../../auto/rev0/Drivers/CMSIS/Include/cmsis_gcc.h ****   \return               MSP Register value
 300:../../../auto/rev0/Drivers/CMSIS/Include/cmsis_gcc.h ****  */
 301:../../../auto/rev0/Drivers/CMSIS/Include/cmsis_gcc.h **** __STATIC_FORCEINLINE uint32_t __get_MSP(void)
 302:../../../auto/rev0/Drivers/CMSIS/Include/cmsis_gcc.h **** {
 303:../../../auto/rev0/Drivers/CMSIS/Include/cmsis_gcc.h ****   uint32_t result;
 304:../../../auto/rev0/Drivers/CMSIS/Include/cmsis_gcc.h **** 
 305:../../../auto/rev0/Drivers/CMSIS/Include/cmsis_gcc.h ****   __ASM volatile ("MRS %0, msp" : "=r" (result) );
 306:../../../auto/rev0/Drivers/CMSIS/Include/cmsis_gcc.h ****   return(result);
 307:../../../auto/rev0/Drivers/CMSIS/Include/cmsis_gcc.h **** }
 308:../../../auto/rev0/Drivers/CMSIS/Include/cmsis_gcc.h **** 
 309:../../../auto/rev0/Drivers/CMSIS/Include/cmsis_gcc.h **** 
 310:../../../auto/rev0/Drivers/CMSIS/Include/cmsis_gcc.h **** #if (defined (__ARM_FEATURE_CMSE ) && (__ARM_FEATURE_CMSE == 3))
 311:../../../auto/rev0/Drivers/CMSIS/Include/cmsis_gcc.h **** /**
 312:../../../auto/rev0/Drivers/CMSIS/Include/cmsis_gcc.h ****   \brief   Get Main Stack Pointer (non-secure)
 313:../../../auto/rev0/Drivers/CMSIS/Include/cmsis_gcc.h ****   \details Returns the current value of the non-secure Main Stack Pointer (MSP) when in secure stat
 314:../../../auto/rev0/Drivers/CMSIS/Include/cmsis_gcc.h ****   \return               MSP Register value
 315:../../../auto/rev0/Drivers/CMSIS/Include/cmsis_gcc.h ****  */
 316:../../../auto/rev0/Drivers/CMSIS/Include/cmsis_gcc.h **** __STATIC_FORCEINLINE uint32_t __TZ_get_MSP_NS(void)
 317:../../../auto/rev0/Drivers/CMSIS/Include/cmsis_gcc.h **** {
 318:../../../auto/rev0/Drivers/CMSIS/Include/cmsis_gcc.h ****   uint32_t result;
 319:../../../auto/rev0/Drivers/CMSIS/Include/cmsis_gcc.h **** 
 320:../../../auto/rev0/Drivers/CMSIS/Include/cmsis_gcc.h ****   __ASM volatile ("MRS %0, msp_ns" : "=r" (result) );
 321:../../../auto/rev0/Drivers/CMSIS/Include/cmsis_gcc.h ****   return(result);
 322:../../../auto/rev0/Drivers/CMSIS/Include/cmsis_gcc.h **** }
 323:../../../auto/rev0/Drivers/CMSIS/Include/cmsis_gcc.h **** #endif
 324:../../../auto/rev0/Drivers/CMSIS/Include/cmsis_gcc.h **** 
 325:../../../auto/rev0/Drivers/CMSIS/Include/cmsis_gcc.h **** 
 326:../../../auto/rev0/Drivers/CMSIS/Include/cmsis_gcc.h **** /**
 327:../../../auto/rev0/Drivers/CMSIS/Include/cmsis_gcc.h ****   \brief   Set Main Stack Pointer
 328:../../../auto/rev0/Drivers/CMSIS/Include/cmsis_gcc.h ****   \details Assigns the given value to the Main Stack Pointer (MSP).
 329:../../../auto/rev0/Drivers/CMSIS/Include/cmsis_gcc.h ****   \param [in]    topOfMainStack  Main Stack Pointer value to set
 330:../../../auto/rev0/Drivers/CMSIS/Include/cmsis_gcc.h ****  */
 331:../../../auto/rev0/Drivers/CMSIS/Include/cmsis_gcc.h **** __STATIC_FORCEINLINE void __set_MSP(uint32_t topOfMainStack)
 332:../../../auto/rev0/Drivers/CMSIS/Include/cmsis_gcc.h **** {
 333:../../../auto/rev0/Drivers/CMSIS/Include/cmsis_gcc.h ****   __ASM volatile ("MSR msp, %0" : : "r" (topOfMainStack) : );
 334:../../../auto/rev0/Drivers/CMSIS/Include/cmsis_gcc.h **** }
 335:../../../auto/rev0/Drivers/CMSIS/Include/cmsis_gcc.h **** 
 336:../../../auto/rev0/Drivers/CMSIS/Include/cmsis_gcc.h **** 
 337:../../../auto/rev0/Drivers/CMSIS/Include/cmsis_gcc.h **** #if (defined (__ARM_FEATURE_CMSE ) && (__ARM_FEATURE_CMSE == 3))
 338:../../../auto/rev0/Drivers/CMSIS/Include/cmsis_gcc.h **** /**
 339:../../../auto/rev0/Drivers/CMSIS/Include/cmsis_gcc.h ****   \brief   Set Main Stack Pointer (non-secure)
 340:../../../auto/rev0/Drivers/CMSIS/Include/cmsis_gcc.h ****   \details Assigns the given value to the non-secure Main Stack Pointer (MSP) when in secure state.
 341:../../../auto/rev0/Drivers/CMSIS/Include/cmsis_gcc.h ****   \param [in]    topOfMainStack  Main Stack Pointer value to set
 342:../../../auto/rev0/Drivers/CMSIS/Include/cmsis_gcc.h ****  */
 343:../../../auto/rev0/Drivers/CMSIS/Include/cmsis_gcc.h **** __STATIC_FORCEINLINE void __TZ_set_MSP_NS(uint32_t topOfMainStack)
 344:../../../auto/rev0/Drivers/CMSIS/Include/cmsis_gcc.h **** {
 345:../../../auto/rev0/Drivers/CMSIS/Include/cmsis_gcc.h ****   __ASM volatile ("MSR msp_ns, %0" : : "r" (topOfMainStack) : );
 346:../../../auto/rev0/Drivers/CMSIS/Include/cmsis_gcc.h **** }
ARM GAS  C:\Users\SRY19_~1\AppData\Local\Temp\ccOeh7I2.s 			page 19


 347:../../../auto/rev0/Drivers/CMSIS/Include/cmsis_gcc.h **** #endif
 348:../../../auto/rev0/Drivers/CMSIS/Include/cmsis_gcc.h **** 
 349:../../../auto/rev0/Drivers/CMSIS/Include/cmsis_gcc.h **** 
 350:../../../auto/rev0/Drivers/CMSIS/Include/cmsis_gcc.h **** #if (defined (__ARM_FEATURE_CMSE ) && (__ARM_FEATURE_CMSE == 3))
 351:../../../auto/rev0/Drivers/CMSIS/Include/cmsis_gcc.h **** /**
 352:../../../auto/rev0/Drivers/CMSIS/Include/cmsis_gcc.h ****   \brief   Get Stack Pointer (non-secure)
 353:../../../auto/rev0/Drivers/CMSIS/Include/cmsis_gcc.h ****   \details Returns the current value of the non-secure Stack Pointer (SP) when in secure state.
 354:../../../auto/rev0/Drivers/CMSIS/Include/cmsis_gcc.h ****   \return               SP Register value
 355:../../../auto/rev0/Drivers/CMSIS/Include/cmsis_gcc.h ****  */
 356:../../../auto/rev0/Drivers/CMSIS/Include/cmsis_gcc.h **** __STATIC_FORCEINLINE uint32_t __TZ_get_SP_NS(void)
 357:../../../auto/rev0/Drivers/CMSIS/Include/cmsis_gcc.h **** {
 358:../../../auto/rev0/Drivers/CMSIS/Include/cmsis_gcc.h ****   uint32_t result;
 359:../../../auto/rev0/Drivers/CMSIS/Include/cmsis_gcc.h **** 
 360:../../../auto/rev0/Drivers/CMSIS/Include/cmsis_gcc.h ****   __ASM volatile ("MRS %0, sp_ns" : "=r" (result) );
 361:../../../auto/rev0/Drivers/CMSIS/Include/cmsis_gcc.h ****   return(result);
 362:../../../auto/rev0/Drivers/CMSIS/Include/cmsis_gcc.h **** }
 363:../../../auto/rev0/Drivers/CMSIS/Include/cmsis_gcc.h **** 
 364:../../../auto/rev0/Drivers/CMSIS/Include/cmsis_gcc.h **** 
 365:../../../auto/rev0/Drivers/CMSIS/Include/cmsis_gcc.h **** /**
 366:../../../auto/rev0/Drivers/CMSIS/Include/cmsis_gcc.h ****   \brief   Set Stack Pointer (non-secure)
 367:../../../auto/rev0/Drivers/CMSIS/Include/cmsis_gcc.h ****   \details Assigns the given value to the non-secure Stack Pointer (SP) when in secure state.
 368:../../../auto/rev0/Drivers/CMSIS/Include/cmsis_gcc.h ****   \param [in]    topOfStack  Stack Pointer value to set
 369:../../../auto/rev0/Drivers/CMSIS/Include/cmsis_gcc.h ****  */
 370:../../../auto/rev0/Drivers/CMSIS/Include/cmsis_gcc.h **** __STATIC_FORCEINLINE void __TZ_set_SP_NS(uint32_t topOfStack)
 371:../../../auto/rev0/Drivers/CMSIS/Include/cmsis_gcc.h **** {
 372:../../../auto/rev0/Drivers/CMSIS/Include/cmsis_gcc.h ****   __ASM volatile ("MSR sp_ns, %0" : : "r" (topOfStack) : );
 373:../../../auto/rev0/Drivers/CMSIS/Include/cmsis_gcc.h **** }
 374:../../../auto/rev0/Drivers/CMSIS/Include/cmsis_gcc.h **** #endif
 375:../../../auto/rev0/Drivers/CMSIS/Include/cmsis_gcc.h **** 
 376:../../../auto/rev0/Drivers/CMSIS/Include/cmsis_gcc.h **** 
 377:../../../auto/rev0/Drivers/CMSIS/Include/cmsis_gcc.h **** /**
 378:../../../auto/rev0/Drivers/CMSIS/Include/cmsis_gcc.h ****   \brief   Get Priority Mask
 379:../../../auto/rev0/Drivers/CMSIS/Include/cmsis_gcc.h ****   \details Returns the current state of the priority mask bit from the Priority Mask Register.
 380:../../../auto/rev0/Drivers/CMSIS/Include/cmsis_gcc.h ****   \return               Priority Mask value
 381:../../../auto/rev0/Drivers/CMSIS/Include/cmsis_gcc.h ****  */
 382:../../../auto/rev0/Drivers/CMSIS/Include/cmsis_gcc.h **** __STATIC_FORCEINLINE uint32_t __get_PRIMASK(void)
 383:../../../auto/rev0/Drivers/CMSIS/Include/cmsis_gcc.h **** {
 384:../../../auto/rev0/Drivers/CMSIS/Include/cmsis_gcc.h ****   uint32_t result;
 385:../../../auto/rev0/Drivers/CMSIS/Include/cmsis_gcc.h **** 
 386:../../../auto/rev0/Drivers/CMSIS/Include/cmsis_gcc.h ****   __ASM volatile ("MRS %0, primask" : "=r" (result) :: "memory");
 387:../../../auto/rev0/Drivers/CMSIS/Include/cmsis_gcc.h ****   return(result);
 388:../../../auto/rev0/Drivers/CMSIS/Include/cmsis_gcc.h **** }
 389:../../../auto/rev0/Drivers/CMSIS/Include/cmsis_gcc.h **** 
 390:../../../auto/rev0/Drivers/CMSIS/Include/cmsis_gcc.h **** 
 391:../../../auto/rev0/Drivers/CMSIS/Include/cmsis_gcc.h **** #if (defined (__ARM_FEATURE_CMSE ) && (__ARM_FEATURE_CMSE == 3))
 392:../../../auto/rev0/Drivers/CMSIS/Include/cmsis_gcc.h **** /**
 393:../../../auto/rev0/Drivers/CMSIS/Include/cmsis_gcc.h ****   \brief   Get Priority Mask (non-secure)
 394:../../../auto/rev0/Drivers/CMSIS/Include/cmsis_gcc.h ****   \details Returns the current state of the non-secure priority mask bit from the Priority Mask Reg
 395:../../../auto/rev0/Drivers/CMSIS/Include/cmsis_gcc.h ****   \return               Priority Mask value
 396:../../../auto/rev0/Drivers/CMSIS/Include/cmsis_gcc.h ****  */
 397:../../../auto/rev0/Drivers/CMSIS/Include/cmsis_gcc.h **** __STATIC_FORCEINLINE uint32_t __TZ_get_PRIMASK_NS(void)
 398:../../../auto/rev0/Drivers/CMSIS/Include/cmsis_gcc.h **** {
 399:../../../auto/rev0/Drivers/CMSIS/Include/cmsis_gcc.h ****   uint32_t result;
 400:../../../auto/rev0/Drivers/CMSIS/Include/cmsis_gcc.h **** 
 401:../../../auto/rev0/Drivers/CMSIS/Include/cmsis_gcc.h ****   __ASM volatile ("MRS %0, primask_ns" : "=r" (result) :: "memory");
 402:../../../auto/rev0/Drivers/CMSIS/Include/cmsis_gcc.h ****   return(result);
 403:../../../auto/rev0/Drivers/CMSIS/Include/cmsis_gcc.h **** }
ARM GAS  C:\Users\SRY19_~1\AppData\Local\Temp\ccOeh7I2.s 			page 20


 404:../../../auto/rev0/Drivers/CMSIS/Include/cmsis_gcc.h **** #endif
 405:../../../auto/rev0/Drivers/CMSIS/Include/cmsis_gcc.h **** 
 406:../../../auto/rev0/Drivers/CMSIS/Include/cmsis_gcc.h **** 
 407:../../../auto/rev0/Drivers/CMSIS/Include/cmsis_gcc.h **** /**
 408:../../../auto/rev0/Drivers/CMSIS/Include/cmsis_gcc.h ****   \brief   Set Priority Mask
 409:../../../auto/rev0/Drivers/CMSIS/Include/cmsis_gcc.h ****   \details Assigns the given value to the Priority Mask Register.
 410:../../../auto/rev0/Drivers/CMSIS/Include/cmsis_gcc.h ****   \param [in]    priMask  Priority Mask
 411:../../../auto/rev0/Drivers/CMSIS/Include/cmsis_gcc.h ****  */
 412:../../../auto/rev0/Drivers/CMSIS/Include/cmsis_gcc.h **** __STATIC_FORCEINLINE void __set_PRIMASK(uint32_t priMask)
 413:../../../auto/rev0/Drivers/CMSIS/Include/cmsis_gcc.h **** {
 414:../../../auto/rev0/Drivers/CMSIS/Include/cmsis_gcc.h ****   __ASM volatile ("MSR primask, %0" : : "r" (priMask) : "memory");
 415:../../../auto/rev0/Drivers/CMSIS/Include/cmsis_gcc.h **** }
 416:../../../auto/rev0/Drivers/CMSIS/Include/cmsis_gcc.h **** 
 417:../../../auto/rev0/Drivers/CMSIS/Include/cmsis_gcc.h **** 
 418:../../../auto/rev0/Drivers/CMSIS/Include/cmsis_gcc.h **** #if (defined (__ARM_FEATURE_CMSE ) && (__ARM_FEATURE_CMSE == 3))
 419:../../../auto/rev0/Drivers/CMSIS/Include/cmsis_gcc.h **** /**
 420:../../../auto/rev0/Drivers/CMSIS/Include/cmsis_gcc.h ****   \brief   Set Priority Mask (non-secure)
 421:../../../auto/rev0/Drivers/CMSIS/Include/cmsis_gcc.h ****   \details Assigns the given value to the non-secure Priority Mask Register when in secure state.
 422:../../../auto/rev0/Drivers/CMSIS/Include/cmsis_gcc.h ****   \param [in]    priMask  Priority Mask
 423:../../../auto/rev0/Drivers/CMSIS/Include/cmsis_gcc.h ****  */
 424:../../../auto/rev0/Drivers/CMSIS/Include/cmsis_gcc.h **** __STATIC_FORCEINLINE void __TZ_set_PRIMASK_NS(uint32_t priMask)
 425:../../../auto/rev0/Drivers/CMSIS/Include/cmsis_gcc.h **** {
 426:../../../auto/rev0/Drivers/CMSIS/Include/cmsis_gcc.h ****   __ASM volatile ("MSR primask_ns, %0" : : "r" (priMask) : "memory");
 427:../../../auto/rev0/Drivers/CMSIS/Include/cmsis_gcc.h **** }
 428:../../../auto/rev0/Drivers/CMSIS/Include/cmsis_gcc.h **** #endif
 429:../../../auto/rev0/Drivers/CMSIS/Include/cmsis_gcc.h **** 
 430:../../../auto/rev0/Drivers/CMSIS/Include/cmsis_gcc.h **** 
 431:../../../auto/rev0/Drivers/CMSIS/Include/cmsis_gcc.h **** #if ((defined (__ARM_ARCH_7M__      ) && (__ARM_ARCH_7M__      == 1)) || \
 432:../../../auto/rev0/Drivers/CMSIS/Include/cmsis_gcc.h ****      (defined (__ARM_ARCH_7EM__     ) && (__ARM_ARCH_7EM__     == 1)) || \
 433:../../../auto/rev0/Drivers/CMSIS/Include/cmsis_gcc.h ****      (defined (__ARM_ARCH_8M_MAIN__ ) && (__ARM_ARCH_8M_MAIN__ == 1))    )
 434:../../../auto/rev0/Drivers/CMSIS/Include/cmsis_gcc.h **** /**
 435:../../../auto/rev0/Drivers/CMSIS/Include/cmsis_gcc.h ****   \brief   Enable FIQ
 436:../../../auto/rev0/Drivers/CMSIS/Include/cmsis_gcc.h ****   \details Enables FIQ interrupts by clearing the F-bit in the CPSR.
 437:../../../auto/rev0/Drivers/CMSIS/Include/cmsis_gcc.h ****            Can only be executed in Privileged modes.
 438:../../../auto/rev0/Drivers/CMSIS/Include/cmsis_gcc.h ****  */
 439:../../../auto/rev0/Drivers/CMSIS/Include/cmsis_gcc.h **** __STATIC_FORCEINLINE void __enable_fault_irq(void)
 440:../../../auto/rev0/Drivers/CMSIS/Include/cmsis_gcc.h **** {
 441:../../../auto/rev0/Drivers/CMSIS/Include/cmsis_gcc.h ****   __ASM volatile ("cpsie f" : : : "memory");
 442:../../../auto/rev0/Drivers/CMSIS/Include/cmsis_gcc.h **** }
 443:../../../auto/rev0/Drivers/CMSIS/Include/cmsis_gcc.h **** 
 444:../../../auto/rev0/Drivers/CMSIS/Include/cmsis_gcc.h **** 
 445:../../../auto/rev0/Drivers/CMSIS/Include/cmsis_gcc.h **** /**
 446:../../../auto/rev0/Drivers/CMSIS/Include/cmsis_gcc.h ****   \brief   Disable FIQ
 447:../../../auto/rev0/Drivers/CMSIS/Include/cmsis_gcc.h ****   \details Disables FIQ interrupts by setting the F-bit in the CPSR.
 448:../../../auto/rev0/Drivers/CMSIS/Include/cmsis_gcc.h ****            Can only be executed in Privileged modes.
 449:../../../auto/rev0/Drivers/CMSIS/Include/cmsis_gcc.h ****  */
 450:../../../auto/rev0/Drivers/CMSIS/Include/cmsis_gcc.h **** __STATIC_FORCEINLINE void __disable_fault_irq(void)
 451:../../../auto/rev0/Drivers/CMSIS/Include/cmsis_gcc.h **** {
 452:../../../auto/rev0/Drivers/CMSIS/Include/cmsis_gcc.h ****   __ASM volatile ("cpsid f" : : : "memory");
 453:../../../auto/rev0/Drivers/CMSIS/Include/cmsis_gcc.h **** }
 454:../../../auto/rev0/Drivers/CMSIS/Include/cmsis_gcc.h **** 
 455:../../../auto/rev0/Drivers/CMSIS/Include/cmsis_gcc.h **** 
 456:../../../auto/rev0/Drivers/CMSIS/Include/cmsis_gcc.h **** /**
 457:../../../auto/rev0/Drivers/CMSIS/Include/cmsis_gcc.h ****   \brief   Get Base Priority
 458:../../../auto/rev0/Drivers/CMSIS/Include/cmsis_gcc.h ****   \details Returns the current value of the Base Priority register.
 459:../../../auto/rev0/Drivers/CMSIS/Include/cmsis_gcc.h ****   \return               Base Priority register value
 460:../../../auto/rev0/Drivers/CMSIS/Include/cmsis_gcc.h ****  */
ARM GAS  C:\Users\SRY19_~1\AppData\Local\Temp\ccOeh7I2.s 			page 21


 461:../../../auto/rev0/Drivers/CMSIS/Include/cmsis_gcc.h **** __STATIC_FORCEINLINE uint32_t __get_BASEPRI(void)
 462:../../../auto/rev0/Drivers/CMSIS/Include/cmsis_gcc.h **** {
 463:../../../auto/rev0/Drivers/CMSIS/Include/cmsis_gcc.h ****   uint32_t result;
 464:../../../auto/rev0/Drivers/CMSIS/Include/cmsis_gcc.h **** 
 465:../../../auto/rev0/Drivers/CMSIS/Include/cmsis_gcc.h ****   __ASM volatile ("MRS %0, basepri" : "=r" (result) );
 466:../../../auto/rev0/Drivers/CMSIS/Include/cmsis_gcc.h ****   return(result);
 467:../../../auto/rev0/Drivers/CMSIS/Include/cmsis_gcc.h **** }
 468:../../../auto/rev0/Drivers/CMSIS/Include/cmsis_gcc.h **** 
 469:../../../auto/rev0/Drivers/CMSIS/Include/cmsis_gcc.h **** 
 470:../../../auto/rev0/Drivers/CMSIS/Include/cmsis_gcc.h **** #if (defined (__ARM_FEATURE_CMSE ) && (__ARM_FEATURE_CMSE == 3))
 471:../../../auto/rev0/Drivers/CMSIS/Include/cmsis_gcc.h **** /**
 472:../../../auto/rev0/Drivers/CMSIS/Include/cmsis_gcc.h ****   \brief   Get Base Priority (non-secure)
 473:../../../auto/rev0/Drivers/CMSIS/Include/cmsis_gcc.h ****   \details Returns the current value of the non-secure Base Priority register when in secure state.
 474:../../../auto/rev0/Drivers/CMSIS/Include/cmsis_gcc.h ****   \return               Base Priority register value
 475:../../../auto/rev0/Drivers/CMSIS/Include/cmsis_gcc.h ****  */
 476:../../../auto/rev0/Drivers/CMSIS/Include/cmsis_gcc.h **** __STATIC_FORCEINLINE uint32_t __TZ_get_BASEPRI_NS(void)
 477:../../../auto/rev0/Drivers/CMSIS/Include/cmsis_gcc.h **** {
 478:../../../auto/rev0/Drivers/CMSIS/Include/cmsis_gcc.h ****   uint32_t result;
 479:../../../auto/rev0/Drivers/CMSIS/Include/cmsis_gcc.h **** 
 480:../../../auto/rev0/Drivers/CMSIS/Include/cmsis_gcc.h ****   __ASM volatile ("MRS %0, basepri_ns" : "=r" (result) );
 481:../../../auto/rev0/Drivers/CMSIS/Include/cmsis_gcc.h ****   return(result);
 482:../../../auto/rev0/Drivers/CMSIS/Include/cmsis_gcc.h **** }
 483:../../../auto/rev0/Drivers/CMSIS/Include/cmsis_gcc.h **** #endif
 484:../../../auto/rev0/Drivers/CMSIS/Include/cmsis_gcc.h **** 
 485:../../../auto/rev0/Drivers/CMSIS/Include/cmsis_gcc.h **** 
 486:../../../auto/rev0/Drivers/CMSIS/Include/cmsis_gcc.h **** /**
 487:../../../auto/rev0/Drivers/CMSIS/Include/cmsis_gcc.h ****   \brief   Set Base Priority
 488:../../../auto/rev0/Drivers/CMSIS/Include/cmsis_gcc.h ****   \details Assigns the given value to the Base Priority register.
 489:../../../auto/rev0/Drivers/CMSIS/Include/cmsis_gcc.h ****   \param [in]    basePri  Base Priority value to set
 490:../../../auto/rev0/Drivers/CMSIS/Include/cmsis_gcc.h ****  */
 491:../../../auto/rev0/Drivers/CMSIS/Include/cmsis_gcc.h **** __STATIC_FORCEINLINE void __set_BASEPRI(uint32_t basePri)
 492:../../../auto/rev0/Drivers/CMSIS/Include/cmsis_gcc.h **** {
 493:../../../auto/rev0/Drivers/CMSIS/Include/cmsis_gcc.h ****   __ASM volatile ("MSR basepri, %0" : : "r" (basePri) : "memory");
 494:../../../auto/rev0/Drivers/CMSIS/Include/cmsis_gcc.h **** }
 495:../../../auto/rev0/Drivers/CMSIS/Include/cmsis_gcc.h **** 
 496:../../../auto/rev0/Drivers/CMSIS/Include/cmsis_gcc.h **** 
 497:../../../auto/rev0/Drivers/CMSIS/Include/cmsis_gcc.h **** #if (defined (__ARM_FEATURE_CMSE ) && (__ARM_FEATURE_CMSE == 3))
 498:../../../auto/rev0/Drivers/CMSIS/Include/cmsis_gcc.h **** /**
 499:../../../auto/rev0/Drivers/CMSIS/Include/cmsis_gcc.h ****   \brief   Set Base Priority (non-secure)
 500:../../../auto/rev0/Drivers/CMSIS/Include/cmsis_gcc.h ****   \details Assigns the given value to the non-secure Base Priority register when in secure state.
 501:../../../auto/rev0/Drivers/CMSIS/Include/cmsis_gcc.h ****   \param [in]    basePri  Base Priority value to set
 502:../../../auto/rev0/Drivers/CMSIS/Include/cmsis_gcc.h ****  */
 503:../../../auto/rev0/Drivers/CMSIS/Include/cmsis_gcc.h **** __STATIC_FORCEINLINE void __TZ_set_BASEPRI_NS(uint32_t basePri)
 504:../../../auto/rev0/Drivers/CMSIS/Include/cmsis_gcc.h **** {
 505:../../../auto/rev0/Drivers/CMSIS/Include/cmsis_gcc.h ****   __ASM volatile ("MSR basepri_ns, %0" : : "r" (basePri) : "memory");
 506:../../../auto/rev0/Drivers/CMSIS/Include/cmsis_gcc.h **** }
 507:../../../auto/rev0/Drivers/CMSIS/Include/cmsis_gcc.h **** #endif
 508:../../../auto/rev0/Drivers/CMSIS/Include/cmsis_gcc.h **** 
 509:../../../auto/rev0/Drivers/CMSIS/Include/cmsis_gcc.h **** 
 510:../../../auto/rev0/Drivers/CMSIS/Include/cmsis_gcc.h **** /**
 511:../../../auto/rev0/Drivers/CMSIS/Include/cmsis_gcc.h ****   \brief   Set Base Priority with condition
 512:../../../auto/rev0/Drivers/CMSIS/Include/cmsis_gcc.h ****   \details Assigns the given value to the Base Priority register only if BASEPRI masking is disable
 513:../../../auto/rev0/Drivers/CMSIS/Include/cmsis_gcc.h ****            or the new value increases the BASEPRI priority level.
 514:../../../auto/rev0/Drivers/CMSIS/Include/cmsis_gcc.h ****   \param [in]    basePri  Base Priority value to set
 515:../../../auto/rev0/Drivers/CMSIS/Include/cmsis_gcc.h ****  */
 516:../../../auto/rev0/Drivers/CMSIS/Include/cmsis_gcc.h **** __STATIC_FORCEINLINE void __set_BASEPRI_MAX(uint32_t basePri)
 517:../../../auto/rev0/Drivers/CMSIS/Include/cmsis_gcc.h **** {
ARM GAS  C:\Users\SRY19_~1\AppData\Local\Temp\ccOeh7I2.s 			page 22


 518:../../../auto/rev0/Drivers/CMSIS/Include/cmsis_gcc.h ****   __ASM volatile ("MSR basepri_max, %0" : : "r" (basePri) : "memory");
 519:../../../auto/rev0/Drivers/CMSIS/Include/cmsis_gcc.h **** }
 520:../../../auto/rev0/Drivers/CMSIS/Include/cmsis_gcc.h **** 
 521:../../../auto/rev0/Drivers/CMSIS/Include/cmsis_gcc.h **** 
 522:../../../auto/rev0/Drivers/CMSIS/Include/cmsis_gcc.h **** /**
 523:../../../auto/rev0/Drivers/CMSIS/Include/cmsis_gcc.h ****   \brief   Get Fault Mask
 524:../../../auto/rev0/Drivers/CMSIS/Include/cmsis_gcc.h ****   \details Returns the current value of the Fault Mask register.
 525:../../../auto/rev0/Drivers/CMSIS/Include/cmsis_gcc.h ****   \return               Fault Mask register value
 526:../../../auto/rev0/Drivers/CMSIS/Include/cmsis_gcc.h ****  */
 527:../../../auto/rev0/Drivers/CMSIS/Include/cmsis_gcc.h **** __STATIC_FORCEINLINE uint32_t __get_FAULTMASK(void)
 528:../../../auto/rev0/Drivers/CMSIS/Include/cmsis_gcc.h **** {
 529:../../../auto/rev0/Drivers/CMSIS/Include/cmsis_gcc.h ****   uint32_t result;
 530:../../../auto/rev0/Drivers/CMSIS/Include/cmsis_gcc.h **** 
 531:../../../auto/rev0/Drivers/CMSIS/Include/cmsis_gcc.h ****   __ASM volatile ("MRS %0, faultmask" : "=r" (result) );
 532:../../../auto/rev0/Drivers/CMSIS/Include/cmsis_gcc.h ****   return(result);
 533:../../../auto/rev0/Drivers/CMSIS/Include/cmsis_gcc.h **** }
 534:../../../auto/rev0/Drivers/CMSIS/Include/cmsis_gcc.h **** 
 535:../../../auto/rev0/Drivers/CMSIS/Include/cmsis_gcc.h **** 
 536:../../../auto/rev0/Drivers/CMSIS/Include/cmsis_gcc.h **** #if (defined (__ARM_FEATURE_CMSE ) && (__ARM_FEATURE_CMSE == 3))
 537:../../../auto/rev0/Drivers/CMSIS/Include/cmsis_gcc.h **** /**
 538:../../../auto/rev0/Drivers/CMSIS/Include/cmsis_gcc.h ****   \brief   Get Fault Mask (non-secure)
 539:../../../auto/rev0/Drivers/CMSIS/Include/cmsis_gcc.h ****   \details Returns the current value of the non-secure Fault Mask register when in secure state.
 540:../../../auto/rev0/Drivers/CMSIS/Include/cmsis_gcc.h ****   \return               Fault Mask register value
 541:../../../auto/rev0/Drivers/CMSIS/Include/cmsis_gcc.h ****  */
 542:../../../auto/rev0/Drivers/CMSIS/Include/cmsis_gcc.h **** __STATIC_FORCEINLINE uint32_t __TZ_get_FAULTMASK_NS(void)
 543:../../../auto/rev0/Drivers/CMSIS/Include/cmsis_gcc.h **** {
 544:../../../auto/rev0/Drivers/CMSIS/Include/cmsis_gcc.h ****   uint32_t result;
 545:../../../auto/rev0/Drivers/CMSIS/Include/cmsis_gcc.h **** 
 546:../../../auto/rev0/Drivers/CMSIS/Include/cmsis_gcc.h ****   __ASM volatile ("MRS %0, faultmask_ns" : "=r" (result) );
 547:../../../auto/rev0/Drivers/CMSIS/Include/cmsis_gcc.h ****   return(result);
 548:../../../auto/rev0/Drivers/CMSIS/Include/cmsis_gcc.h **** }
 549:../../../auto/rev0/Drivers/CMSIS/Include/cmsis_gcc.h **** #endif
 550:../../../auto/rev0/Drivers/CMSIS/Include/cmsis_gcc.h **** 
 551:../../../auto/rev0/Drivers/CMSIS/Include/cmsis_gcc.h **** 
 552:../../../auto/rev0/Drivers/CMSIS/Include/cmsis_gcc.h **** /**
 553:../../../auto/rev0/Drivers/CMSIS/Include/cmsis_gcc.h ****   \brief   Set Fault Mask
 554:../../../auto/rev0/Drivers/CMSIS/Include/cmsis_gcc.h ****   \details Assigns the given value to the Fault Mask register.
 555:../../../auto/rev0/Drivers/CMSIS/Include/cmsis_gcc.h ****   \param [in]    faultMask  Fault Mask value to set
 556:../../../auto/rev0/Drivers/CMSIS/Include/cmsis_gcc.h ****  */
 557:../../../auto/rev0/Drivers/CMSIS/Include/cmsis_gcc.h **** __STATIC_FORCEINLINE void __set_FAULTMASK(uint32_t faultMask)
 558:../../../auto/rev0/Drivers/CMSIS/Include/cmsis_gcc.h **** {
 559:../../../auto/rev0/Drivers/CMSIS/Include/cmsis_gcc.h ****   __ASM volatile ("MSR faultmask, %0" : : "r" (faultMask) : "memory");
 560:../../../auto/rev0/Drivers/CMSIS/Include/cmsis_gcc.h **** }
 561:../../../auto/rev0/Drivers/CMSIS/Include/cmsis_gcc.h **** 
 562:../../../auto/rev0/Drivers/CMSIS/Include/cmsis_gcc.h **** 
 563:../../../auto/rev0/Drivers/CMSIS/Include/cmsis_gcc.h **** #if (defined (__ARM_FEATURE_CMSE ) && (__ARM_FEATURE_CMSE == 3))
 564:../../../auto/rev0/Drivers/CMSIS/Include/cmsis_gcc.h **** /**
 565:../../../auto/rev0/Drivers/CMSIS/Include/cmsis_gcc.h ****   \brief   Set Fault Mask (non-secure)
 566:../../../auto/rev0/Drivers/CMSIS/Include/cmsis_gcc.h ****   \details Assigns the given value to the non-secure Fault Mask register when in secure state.
 567:../../../auto/rev0/Drivers/CMSIS/Include/cmsis_gcc.h ****   \param [in]    faultMask  Fault Mask value to set
 568:../../../auto/rev0/Drivers/CMSIS/Include/cmsis_gcc.h ****  */
 569:../../../auto/rev0/Drivers/CMSIS/Include/cmsis_gcc.h **** __STATIC_FORCEINLINE void __TZ_set_FAULTMASK_NS(uint32_t faultMask)
 570:../../../auto/rev0/Drivers/CMSIS/Include/cmsis_gcc.h **** {
 571:../../../auto/rev0/Drivers/CMSIS/Include/cmsis_gcc.h ****   __ASM volatile ("MSR faultmask_ns, %0" : : "r" (faultMask) : "memory");
 572:../../../auto/rev0/Drivers/CMSIS/Include/cmsis_gcc.h **** }
 573:../../../auto/rev0/Drivers/CMSIS/Include/cmsis_gcc.h **** #endif
 574:../../../auto/rev0/Drivers/CMSIS/Include/cmsis_gcc.h **** 
ARM GAS  C:\Users\SRY19_~1\AppData\Local\Temp\ccOeh7I2.s 			page 23


 575:../../../auto/rev0/Drivers/CMSIS/Include/cmsis_gcc.h **** #endif /* ((defined (__ARM_ARCH_7M__      ) && (__ARM_ARCH_7M__      == 1)) || \
 576:../../../auto/rev0/Drivers/CMSIS/Include/cmsis_gcc.h ****            (defined (__ARM_ARCH_7EM__     ) && (__ARM_ARCH_7EM__     == 1)) || \
 577:../../../auto/rev0/Drivers/CMSIS/Include/cmsis_gcc.h ****            (defined (__ARM_ARCH_8M_MAIN__ ) && (__ARM_ARCH_8M_MAIN__ == 1))    ) */
 578:../../../auto/rev0/Drivers/CMSIS/Include/cmsis_gcc.h **** 
 579:../../../auto/rev0/Drivers/CMSIS/Include/cmsis_gcc.h **** 
 580:../../../auto/rev0/Drivers/CMSIS/Include/cmsis_gcc.h **** #if ((defined (__ARM_ARCH_8M_MAIN__ ) && (__ARM_ARCH_8M_MAIN__ == 1)) || \
 581:../../../auto/rev0/Drivers/CMSIS/Include/cmsis_gcc.h ****      (defined (__ARM_ARCH_8M_BASE__ ) && (__ARM_ARCH_8M_BASE__ == 1))    )
 582:../../../auto/rev0/Drivers/CMSIS/Include/cmsis_gcc.h **** 
 583:../../../auto/rev0/Drivers/CMSIS/Include/cmsis_gcc.h **** /**
 584:../../../auto/rev0/Drivers/CMSIS/Include/cmsis_gcc.h ****   \brief   Get Process Stack Pointer Limit
 585:../../../auto/rev0/Drivers/CMSIS/Include/cmsis_gcc.h ****   Devices without ARMv8-M Main Extensions (i.e. Cortex-M23) lack the non-secure
 586:../../../auto/rev0/Drivers/CMSIS/Include/cmsis_gcc.h ****   Stack Pointer Limit register hence zero is returned always in non-secure
 587:../../../auto/rev0/Drivers/CMSIS/Include/cmsis_gcc.h ****   mode.
 588:../../../auto/rev0/Drivers/CMSIS/Include/cmsis_gcc.h ****   
 589:../../../auto/rev0/Drivers/CMSIS/Include/cmsis_gcc.h ****   \details Returns the current value of the Process Stack Pointer Limit (PSPLIM).
 590:../../../auto/rev0/Drivers/CMSIS/Include/cmsis_gcc.h ****   \return               PSPLIM Register value
 591:../../../auto/rev0/Drivers/CMSIS/Include/cmsis_gcc.h ****  */
 592:../../../auto/rev0/Drivers/CMSIS/Include/cmsis_gcc.h **** __STATIC_FORCEINLINE uint32_t __get_PSPLIM(void)
 593:../../../auto/rev0/Drivers/CMSIS/Include/cmsis_gcc.h **** {
 594:../../../auto/rev0/Drivers/CMSIS/Include/cmsis_gcc.h **** #if (!(defined (__ARM_ARCH_8M_MAIN__ ) && (__ARM_ARCH_8M_MAIN__ == 1)) && \
 595:../../../auto/rev0/Drivers/CMSIS/Include/cmsis_gcc.h ****     (!defined (__ARM_FEATURE_CMSE) || (__ARM_FEATURE_CMSE < 3)))
 596:../../../auto/rev0/Drivers/CMSIS/Include/cmsis_gcc.h ****     // without main extensions, the non-secure PSPLIM is RAZ/WI
 597:../../../auto/rev0/Drivers/CMSIS/Include/cmsis_gcc.h ****   return 0U;
 598:../../../auto/rev0/Drivers/CMSIS/Include/cmsis_gcc.h **** #else
 599:../../../auto/rev0/Drivers/CMSIS/Include/cmsis_gcc.h ****   uint32_t result;
 600:../../../auto/rev0/Drivers/CMSIS/Include/cmsis_gcc.h ****   __ASM volatile ("MRS %0, psplim"  : "=r" (result) );
 601:../../../auto/rev0/Drivers/CMSIS/Include/cmsis_gcc.h ****   return result;
 602:../../../auto/rev0/Drivers/CMSIS/Include/cmsis_gcc.h **** #endif
 603:../../../auto/rev0/Drivers/CMSIS/Include/cmsis_gcc.h **** }
 604:../../../auto/rev0/Drivers/CMSIS/Include/cmsis_gcc.h **** 
 605:../../../auto/rev0/Drivers/CMSIS/Include/cmsis_gcc.h **** #if (defined (__ARM_FEATURE_CMSE) && (__ARM_FEATURE_CMSE == 3))
 606:../../../auto/rev0/Drivers/CMSIS/Include/cmsis_gcc.h **** /**
 607:../../../auto/rev0/Drivers/CMSIS/Include/cmsis_gcc.h ****   \brief   Get Process Stack Pointer Limit (non-secure)
 608:../../../auto/rev0/Drivers/CMSIS/Include/cmsis_gcc.h ****   Devices without ARMv8-M Main Extensions (i.e. Cortex-M23) lack the non-secure
 609:../../../auto/rev0/Drivers/CMSIS/Include/cmsis_gcc.h ****   Stack Pointer Limit register hence zero is returned always.
 610:../../../auto/rev0/Drivers/CMSIS/Include/cmsis_gcc.h **** 
 611:../../../auto/rev0/Drivers/CMSIS/Include/cmsis_gcc.h ****   \details Returns the current value of the non-secure Process Stack Pointer Limit (PSPLIM) when in
 612:../../../auto/rev0/Drivers/CMSIS/Include/cmsis_gcc.h ****   \return               PSPLIM Register value
 613:../../../auto/rev0/Drivers/CMSIS/Include/cmsis_gcc.h ****  */
 614:../../../auto/rev0/Drivers/CMSIS/Include/cmsis_gcc.h **** __STATIC_FORCEINLINE uint32_t __TZ_get_PSPLIM_NS(void)
 615:../../../auto/rev0/Drivers/CMSIS/Include/cmsis_gcc.h **** {
 616:../../../auto/rev0/Drivers/CMSIS/Include/cmsis_gcc.h **** #if (!(defined (__ARM_ARCH_8M_MAIN__ ) && (__ARM_ARCH_8M_MAIN__ == 1)))
 617:../../../auto/rev0/Drivers/CMSIS/Include/cmsis_gcc.h ****   // without main extensions, the non-secure PSPLIM is RAZ/WI
 618:../../../auto/rev0/Drivers/CMSIS/Include/cmsis_gcc.h ****   return 0U;
 619:../../../auto/rev0/Drivers/CMSIS/Include/cmsis_gcc.h **** #else
 620:../../../auto/rev0/Drivers/CMSIS/Include/cmsis_gcc.h ****   uint32_t result;
 621:../../../auto/rev0/Drivers/CMSIS/Include/cmsis_gcc.h ****   __ASM volatile ("MRS %0, psplim_ns"  : "=r" (result) );
 622:../../../auto/rev0/Drivers/CMSIS/Include/cmsis_gcc.h ****   return result;
 623:../../../auto/rev0/Drivers/CMSIS/Include/cmsis_gcc.h **** #endif
 624:../../../auto/rev0/Drivers/CMSIS/Include/cmsis_gcc.h **** }
 625:../../../auto/rev0/Drivers/CMSIS/Include/cmsis_gcc.h **** #endif
 626:../../../auto/rev0/Drivers/CMSIS/Include/cmsis_gcc.h **** 
 627:../../../auto/rev0/Drivers/CMSIS/Include/cmsis_gcc.h **** 
 628:../../../auto/rev0/Drivers/CMSIS/Include/cmsis_gcc.h **** /**
 629:../../../auto/rev0/Drivers/CMSIS/Include/cmsis_gcc.h ****   \brief   Set Process Stack Pointer Limit
 630:../../../auto/rev0/Drivers/CMSIS/Include/cmsis_gcc.h ****   Devices without ARMv8-M Main Extensions (i.e. Cortex-M23) lack the non-secure
 631:../../../auto/rev0/Drivers/CMSIS/Include/cmsis_gcc.h ****   Stack Pointer Limit register hence the write is silently ignored in non-secure
ARM GAS  C:\Users\SRY19_~1\AppData\Local\Temp\ccOeh7I2.s 			page 24


 632:../../../auto/rev0/Drivers/CMSIS/Include/cmsis_gcc.h ****   mode.
 633:../../../auto/rev0/Drivers/CMSIS/Include/cmsis_gcc.h ****   
 634:../../../auto/rev0/Drivers/CMSIS/Include/cmsis_gcc.h ****   \details Assigns the given value to the Process Stack Pointer Limit (PSPLIM).
 635:../../../auto/rev0/Drivers/CMSIS/Include/cmsis_gcc.h ****   \param [in]    ProcStackPtrLimit  Process Stack Pointer Limit value to set
 636:../../../auto/rev0/Drivers/CMSIS/Include/cmsis_gcc.h ****  */
 637:../../../auto/rev0/Drivers/CMSIS/Include/cmsis_gcc.h **** __STATIC_FORCEINLINE void __set_PSPLIM(uint32_t ProcStackPtrLimit)
 638:../../../auto/rev0/Drivers/CMSIS/Include/cmsis_gcc.h **** {
 639:../../../auto/rev0/Drivers/CMSIS/Include/cmsis_gcc.h **** #if (!(defined (__ARM_ARCH_8M_MAIN__ ) && (__ARM_ARCH_8M_MAIN__ == 1)) && \
 640:../../../auto/rev0/Drivers/CMSIS/Include/cmsis_gcc.h ****     (!defined (__ARM_FEATURE_CMSE) || (__ARM_FEATURE_CMSE < 3)))
 641:../../../auto/rev0/Drivers/CMSIS/Include/cmsis_gcc.h ****   // without main extensions, the non-secure PSPLIM is RAZ/WI
 642:../../../auto/rev0/Drivers/CMSIS/Include/cmsis_gcc.h ****   (void)ProcStackPtrLimit;
 643:../../../auto/rev0/Drivers/CMSIS/Include/cmsis_gcc.h **** #else
 644:../../../auto/rev0/Drivers/CMSIS/Include/cmsis_gcc.h ****   __ASM volatile ("MSR psplim, %0" : : "r" (ProcStackPtrLimit));
 645:../../../auto/rev0/Drivers/CMSIS/Include/cmsis_gcc.h **** #endif
 646:../../../auto/rev0/Drivers/CMSIS/Include/cmsis_gcc.h **** }
 647:../../../auto/rev0/Drivers/CMSIS/Include/cmsis_gcc.h **** 
 648:../../../auto/rev0/Drivers/CMSIS/Include/cmsis_gcc.h **** 
 649:../../../auto/rev0/Drivers/CMSIS/Include/cmsis_gcc.h **** #if (defined (__ARM_FEATURE_CMSE  ) && (__ARM_FEATURE_CMSE   == 3))
 650:../../../auto/rev0/Drivers/CMSIS/Include/cmsis_gcc.h **** /**
 651:../../../auto/rev0/Drivers/CMSIS/Include/cmsis_gcc.h ****   \brief   Set Process Stack Pointer (non-secure)
 652:../../../auto/rev0/Drivers/CMSIS/Include/cmsis_gcc.h ****   Devices without ARMv8-M Main Extensions (i.e. Cortex-M23) lack the non-secure
 653:../../../auto/rev0/Drivers/CMSIS/Include/cmsis_gcc.h ****   Stack Pointer Limit register hence the write is silently ignored.
 654:../../../auto/rev0/Drivers/CMSIS/Include/cmsis_gcc.h **** 
 655:../../../auto/rev0/Drivers/CMSIS/Include/cmsis_gcc.h ****   \details Assigns the given value to the non-secure Process Stack Pointer Limit (PSPLIM) when in s
 656:../../../auto/rev0/Drivers/CMSIS/Include/cmsis_gcc.h ****   \param [in]    ProcStackPtrLimit  Process Stack Pointer Limit value to set
 657:../../../auto/rev0/Drivers/CMSIS/Include/cmsis_gcc.h ****  */
 658:../../../auto/rev0/Drivers/CMSIS/Include/cmsis_gcc.h **** __STATIC_FORCEINLINE void __TZ_set_PSPLIM_NS(uint32_t ProcStackPtrLimit)
 659:../../../auto/rev0/Drivers/CMSIS/Include/cmsis_gcc.h **** {
 660:../../../auto/rev0/Drivers/CMSIS/Include/cmsis_gcc.h **** #if (!(defined (__ARM_ARCH_8M_MAIN__ ) && (__ARM_ARCH_8M_MAIN__ == 1)))
 661:../../../auto/rev0/Drivers/CMSIS/Include/cmsis_gcc.h ****   // without main extensions, the non-secure PSPLIM is RAZ/WI
 662:../../../auto/rev0/Drivers/CMSIS/Include/cmsis_gcc.h ****   (void)ProcStackPtrLimit;
 663:../../../auto/rev0/Drivers/CMSIS/Include/cmsis_gcc.h **** #else
 664:../../../auto/rev0/Drivers/CMSIS/Include/cmsis_gcc.h ****   __ASM volatile ("MSR psplim_ns, %0\n" : : "r" (ProcStackPtrLimit));
 665:../../../auto/rev0/Drivers/CMSIS/Include/cmsis_gcc.h **** #endif
 666:../../../auto/rev0/Drivers/CMSIS/Include/cmsis_gcc.h **** }
 667:../../../auto/rev0/Drivers/CMSIS/Include/cmsis_gcc.h **** #endif
 668:../../../auto/rev0/Drivers/CMSIS/Include/cmsis_gcc.h **** 
 669:../../../auto/rev0/Drivers/CMSIS/Include/cmsis_gcc.h **** 
 670:../../../auto/rev0/Drivers/CMSIS/Include/cmsis_gcc.h **** /**
 671:../../../auto/rev0/Drivers/CMSIS/Include/cmsis_gcc.h ****   \brief   Get Main Stack Pointer Limit
 672:../../../auto/rev0/Drivers/CMSIS/Include/cmsis_gcc.h ****   Devices without ARMv8-M Main Extensions (i.e. Cortex-M23) lack the non-secure
 673:../../../auto/rev0/Drivers/CMSIS/Include/cmsis_gcc.h ****   Stack Pointer Limit register hence zero is returned always in non-secure
 674:../../../auto/rev0/Drivers/CMSIS/Include/cmsis_gcc.h ****   mode.
 675:../../../auto/rev0/Drivers/CMSIS/Include/cmsis_gcc.h **** 
 676:../../../auto/rev0/Drivers/CMSIS/Include/cmsis_gcc.h ****   \details Returns the current value of the Main Stack Pointer Limit (MSPLIM).
 677:../../../auto/rev0/Drivers/CMSIS/Include/cmsis_gcc.h ****   \return               MSPLIM Register value
 678:../../../auto/rev0/Drivers/CMSIS/Include/cmsis_gcc.h ****  */
 679:../../../auto/rev0/Drivers/CMSIS/Include/cmsis_gcc.h **** __STATIC_FORCEINLINE uint32_t __get_MSPLIM(void)
 680:../../../auto/rev0/Drivers/CMSIS/Include/cmsis_gcc.h **** {
 681:../../../auto/rev0/Drivers/CMSIS/Include/cmsis_gcc.h **** #if (!(defined (__ARM_ARCH_8M_MAIN__ ) && (__ARM_ARCH_8M_MAIN__ == 1)) && \
 682:../../../auto/rev0/Drivers/CMSIS/Include/cmsis_gcc.h ****     (!defined (__ARM_FEATURE_CMSE) || (__ARM_FEATURE_CMSE < 3)))
 683:../../../auto/rev0/Drivers/CMSIS/Include/cmsis_gcc.h ****   // without main extensions, the non-secure MSPLIM is RAZ/WI
 684:../../../auto/rev0/Drivers/CMSIS/Include/cmsis_gcc.h ****   return 0U;
 685:../../../auto/rev0/Drivers/CMSIS/Include/cmsis_gcc.h **** #else
 686:../../../auto/rev0/Drivers/CMSIS/Include/cmsis_gcc.h ****   uint32_t result;
 687:../../../auto/rev0/Drivers/CMSIS/Include/cmsis_gcc.h ****   __ASM volatile ("MRS %0, msplim" : "=r" (result) );
 688:../../../auto/rev0/Drivers/CMSIS/Include/cmsis_gcc.h ****   return result;
ARM GAS  C:\Users\SRY19_~1\AppData\Local\Temp\ccOeh7I2.s 			page 25


 689:../../../auto/rev0/Drivers/CMSIS/Include/cmsis_gcc.h **** #endif
 690:../../../auto/rev0/Drivers/CMSIS/Include/cmsis_gcc.h **** }
 691:../../../auto/rev0/Drivers/CMSIS/Include/cmsis_gcc.h **** 
 692:../../../auto/rev0/Drivers/CMSIS/Include/cmsis_gcc.h **** 
 693:../../../auto/rev0/Drivers/CMSIS/Include/cmsis_gcc.h **** #if (defined (__ARM_FEATURE_CMSE  ) && (__ARM_FEATURE_CMSE   == 3))
 694:../../../auto/rev0/Drivers/CMSIS/Include/cmsis_gcc.h **** /**
 695:../../../auto/rev0/Drivers/CMSIS/Include/cmsis_gcc.h ****   \brief   Get Main Stack Pointer Limit (non-secure)
 696:../../../auto/rev0/Drivers/CMSIS/Include/cmsis_gcc.h ****   Devices without ARMv8-M Main Extensions (i.e. Cortex-M23) lack the non-secure
 697:../../../auto/rev0/Drivers/CMSIS/Include/cmsis_gcc.h ****   Stack Pointer Limit register hence zero is returned always.
 698:../../../auto/rev0/Drivers/CMSIS/Include/cmsis_gcc.h **** 
 699:../../../auto/rev0/Drivers/CMSIS/Include/cmsis_gcc.h ****   \details Returns the current value of the non-secure Main Stack Pointer Limit(MSPLIM) when in sec
 700:../../../auto/rev0/Drivers/CMSIS/Include/cmsis_gcc.h ****   \return               MSPLIM Register value
 701:../../../auto/rev0/Drivers/CMSIS/Include/cmsis_gcc.h ****  */
 702:../../../auto/rev0/Drivers/CMSIS/Include/cmsis_gcc.h **** __STATIC_FORCEINLINE uint32_t __TZ_get_MSPLIM_NS(void)
 703:../../../auto/rev0/Drivers/CMSIS/Include/cmsis_gcc.h **** {
 704:../../../auto/rev0/Drivers/CMSIS/Include/cmsis_gcc.h **** #if (!(defined (__ARM_ARCH_8M_MAIN__ ) && (__ARM_ARCH_8M_MAIN__ == 1)))
 705:../../../auto/rev0/Drivers/CMSIS/Include/cmsis_gcc.h ****   // without main extensions, the non-secure MSPLIM is RAZ/WI
 706:../../../auto/rev0/Drivers/CMSIS/Include/cmsis_gcc.h ****   return 0U;
 707:../../../auto/rev0/Drivers/CMSIS/Include/cmsis_gcc.h **** #else
 708:../../../auto/rev0/Drivers/CMSIS/Include/cmsis_gcc.h ****   uint32_t result;
 709:../../../auto/rev0/Drivers/CMSIS/Include/cmsis_gcc.h ****   __ASM volatile ("MRS %0, msplim_ns" : "=r" (result) );
 710:../../../auto/rev0/Drivers/CMSIS/Include/cmsis_gcc.h ****   return result;
 711:../../../auto/rev0/Drivers/CMSIS/Include/cmsis_gcc.h **** #endif
 712:../../../auto/rev0/Drivers/CMSIS/Include/cmsis_gcc.h **** }
 713:../../../auto/rev0/Drivers/CMSIS/Include/cmsis_gcc.h **** #endif
 714:../../../auto/rev0/Drivers/CMSIS/Include/cmsis_gcc.h **** 
 715:../../../auto/rev0/Drivers/CMSIS/Include/cmsis_gcc.h **** 
 716:../../../auto/rev0/Drivers/CMSIS/Include/cmsis_gcc.h **** /**
 717:../../../auto/rev0/Drivers/CMSIS/Include/cmsis_gcc.h ****   \brief   Set Main Stack Pointer Limit
 718:../../../auto/rev0/Drivers/CMSIS/Include/cmsis_gcc.h ****   Devices without ARMv8-M Main Extensions (i.e. Cortex-M23) lack the non-secure
 719:../../../auto/rev0/Drivers/CMSIS/Include/cmsis_gcc.h ****   Stack Pointer Limit register hence the write is silently ignored in non-secure
 720:../../../auto/rev0/Drivers/CMSIS/Include/cmsis_gcc.h ****   mode.
 721:../../../auto/rev0/Drivers/CMSIS/Include/cmsis_gcc.h **** 
 722:../../../auto/rev0/Drivers/CMSIS/Include/cmsis_gcc.h ****   \details Assigns the given value to the Main Stack Pointer Limit (MSPLIM).
 723:../../../auto/rev0/Drivers/CMSIS/Include/cmsis_gcc.h ****   \param [in]    MainStackPtrLimit  Main Stack Pointer Limit value to set
 724:../../../auto/rev0/Drivers/CMSIS/Include/cmsis_gcc.h ****  */
 725:../../../auto/rev0/Drivers/CMSIS/Include/cmsis_gcc.h **** __STATIC_FORCEINLINE void __set_MSPLIM(uint32_t MainStackPtrLimit)
 726:../../../auto/rev0/Drivers/CMSIS/Include/cmsis_gcc.h **** {
 727:../../../auto/rev0/Drivers/CMSIS/Include/cmsis_gcc.h **** #if (!(defined (__ARM_ARCH_8M_MAIN__ ) && (__ARM_ARCH_8M_MAIN__ == 1)) && \
 728:../../../auto/rev0/Drivers/CMSIS/Include/cmsis_gcc.h ****     (!defined (__ARM_FEATURE_CMSE) || (__ARM_FEATURE_CMSE < 3)))
 729:../../../auto/rev0/Drivers/CMSIS/Include/cmsis_gcc.h ****   // without main extensions, the non-secure MSPLIM is RAZ/WI
 730:../../../auto/rev0/Drivers/CMSIS/Include/cmsis_gcc.h ****   (void)MainStackPtrLimit;
 731:../../../auto/rev0/Drivers/CMSIS/Include/cmsis_gcc.h **** #else
 732:../../../auto/rev0/Drivers/CMSIS/Include/cmsis_gcc.h ****   __ASM volatile ("MSR msplim, %0" : : "r" (MainStackPtrLimit));
 733:../../../auto/rev0/Drivers/CMSIS/Include/cmsis_gcc.h **** #endif
 734:../../../auto/rev0/Drivers/CMSIS/Include/cmsis_gcc.h **** }
 735:../../../auto/rev0/Drivers/CMSIS/Include/cmsis_gcc.h **** 
 736:../../../auto/rev0/Drivers/CMSIS/Include/cmsis_gcc.h **** 
 737:../../../auto/rev0/Drivers/CMSIS/Include/cmsis_gcc.h **** #if (defined (__ARM_FEATURE_CMSE  ) && (__ARM_FEATURE_CMSE   == 3))
 738:../../../auto/rev0/Drivers/CMSIS/Include/cmsis_gcc.h **** /**
 739:../../../auto/rev0/Drivers/CMSIS/Include/cmsis_gcc.h ****   \brief   Set Main Stack Pointer Limit (non-secure)
 740:../../../auto/rev0/Drivers/CMSIS/Include/cmsis_gcc.h ****   Devices without ARMv8-M Main Extensions (i.e. Cortex-M23) lack the non-secure
 741:../../../auto/rev0/Drivers/CMSIS/Include/cmsis_gcc.h ****   Stack Pointer Limit register hence the write is silently ignored.
 742:../../../auto/rev0/Drivers/CMSIS/Include/cmsis_gcc.h **** 
 743:../../../auto/rev0/Drivers/CMSIS/Include/cmsis_gcc.h ****   \details Assigns the given value to the non-secure Main Stack Pointer Limit (MSPLIM) when in secu
 744:../../../auto/rev0/Drivers/CMSIS/Include/cmsis_gcc.h ****   \param [in]    MainStackPtrLimit  Main Stack Pointer value to set
 745:../../../auto/rev0/Drivers/CMSIS/Include/cmsis_gcc.h ****  */
ARM GAS  C:\Users\SRY19_~1\AppData\Local\Temp\ccOeh7I2.s 			page 26


 746:../../../auto/rev0/Drivers/CMSIS/Include/cmsis_gcc.h **** __STATIC_FORCEINLINE void __TZ_set_MSPLIM_NS(uint32_t MainStackPtrLimit)
 747:../../../auto/rev0/Drivers/CMSIS/Include/cmsis_gcc.h **** {
 748:../../../auto/rev0/Drivers/CMSIS/Include/cmsis_gcc.h **** #if (!(defined (__ARM_ARCH_8M_MAIN__ ) && (__ARM_ARCH_8M_MAIN__ == 1)))
 749:../../../auto/rev0/Drivers/CMSIS/Include/cmsis_gcc.h ****   // without main extensions, the non-secure MSPLIM is RAZ/WI
 750:../../../auto/rev0/Drivers/CMSIS/Include/cmsis_gcc.h ****   (void)MainStackPtrLimit;
 751:../../../auto/rev0/Drivers/CMSIS/Include/cmsis_gcc.h **** #else
 752:../../../auto/rev0/Drivers/CMSIS/Include/cmsis_gcc.h ****   __ASM volatile ("MSR msplim_ns, %0" : : "r" (MainStackPtrLimit));
 753:../../../auto/rev0/Drivers/CMSIS/Include/cmsis_gcc.h **** #endif
 754:../../../auto/rev0/Drivers/CMSIS/Include/cmsis_gcc.h **** }
 755:../../../auto/rev0/Drivers/CMSIS/Include/cmsis_gcc.h **** #endif
 756:../../../auto/rev0/Drivers/CMSIS/Include/cmsis_gcc.h **** 
 757:../../../auto/rev0/Drivers/CMSIS/Include/cmsis_gcc.h **** #endif /* ((defined (__ARM_ARCH_8M_MAIN__ ) && (__ARM_ARCH_8M_MAIN__ == 1)) || \
 758:../../../auto/rev0/Drivers/CMSIS/Include/cmsis_gcc.h ****            (defined (__ARM_ARCH_8M_BASE__ ) && (__ARM_ARCH_8M_BASE__ == 1))    ) */
 759:../../../auto/rev0/Drivers/CMSIS/Include/cmsis_gcc.h **** 
 760:../../../auto/rev0/Drivers/CMSIS/Include/cmsis_gcc.h **** 
 761:../../../auto/rev0/Drivers/CMSIS/Include/cmsis_gcc.h **** /**
 762:../../../auto/rev0/Drivers/CMSIS/Include/cmsis_gcc.h ****   \brief   Get FPSCR
 763:../../../auto/rev0/Drivers/CMSIS/Include/cmsis_gcc.h ****   \details Returns the current value of the Floating Point Status/Control register.
 764:../../../auto/rev0/Drivers/CMSIS/Include/cmsis_gcc.h ****   \return               Floating Point Status/Control register value
 765:../../../auto/rev0/Drivers/CMSIS/Include/cmsis_gcc.h ****  */
 766:../../../auto/rev0/Drivers/CMSIS/Include/cmsis_gcc.h **** __STATIC_FORCEINLINE uint32_t __get_FPSCR(void)
 767:../../../auto/rev0/Drivers/CMSIS/Include/cmsis_gcc.h **** {
 768:../../../auto/rev0/Drivers/CMSIS/Include/cmsis_gcc.h **** #if ((defined (__FPU_PRESENT) && (__FPU_PRESENT == 1U)) && \
 769:../../../auto/rev0/Drivers/CMSIS/Include/cmsis_gcc.h ****      (defined (__FPU_USED   ) && (__FPU_USED    == 1U))     )
 770:../../../auto/rev0/Drivers/CMSIS/Include/cmsis_gcc.h **** #if __has_builtin(__builtin_arm_get_fpscr) 
 771:../../../auto/rev0/Drivers/CMSIS/Include/cmsis_gcc.h **** // Re-enable using built-in when GCC has been fixed
 772:../../../auto/rev0/Drivers/CMSIS/Include/cmsis_gcc.h **** // || (__GNUC__ > 7) || (__GNUC__ == 7 && __GNUC_MINOR__ >= 2)
 773:../../../auto/rev0/Drivers/CMSIS/Include/cmsis_gcc.h ****   /* see https://gcc.gnu.org/ml/gcc-patches/2017-04/msg00443.html */
 774:../../../auto/rev0/Drivers/CMSIS/Include/cmsis_gcc.h ****   return __builtin_arm_get_fpscr();
 775:../../../auto/rev0/Drivers/CMSIS/Include/cmsis_gcc.h **** #else
 776:../../../auto/rev0/Drivers/CMSIS/Include/cmsis_gcc.h ****   uint32_t result;
 777:../../../auto/rev0/Drivers/CMSIS/Include/cmsis_gcc.h **** 
 778:../../../auto/rev0/Drivers/CMSIS/Include/cmsis_gcc.h ****   __ASM volatile ("VMRS %0, fpscr" : "=r" (result) );
 779:../../../auto/rev0/Drivers/CMSIS/Include/cmsis_gcc.h ****   return(result);
 780:../../../auto/rev0/Drivers/CMSIS/Include/cmsis_gcc.h **** #endif
 781:../../../auto/rev0/Drivers/CMSIS/Include/cmsis_gcc.h **** #else
 782:../../../auto/rev0/Drivers/CMSIS/Include/cmsis_gcc.h ****   return(0U);
 783:../../../auto/rev0/Drivers/CMSIS/Include/cmsis_gcc.h **** #endif
 784:../../../auto/rev0/Drivers/CMSIS/Include/cmsis_gcc.h **** }
 785:../../../auto/rev0/Drivers/CMSIS/Include/cmsis_gcc.h **** 
 786:../../../auto/rev0/Drivers/CMSIS/Include/cmsis_gcc.h **** 
 787:../../../auto/rev0/Drivers/CMSIS/Include/cmsis_gcc.h **** /**
 788:../../../auto/rev0/Drivers/CMSIS/Include/cmsis_gcc.h ****   \brief   Set FPSCR
 789:../../../auto/rev0/Drivers/CMSIS/Include/cmsis_gcc.h ****   \details Assigns the given value to the Floating Point Status/Control register.
 790:../../../auto/rev0/Drivers/CMSIS/Include/cmsis_gcc.h ****   \param [in]    fpscr  Floating Point Status/Control value to set
 791:../../../auto/rev0/Drivers/CMSIS/Include/cmsis_gcc.h ****  */
 792:../../../auto/rev0/Drivers/CMSIS/Include/cmsis_gcc.h **** __STATIC_FORCEINLINE void __set_FPSCR(uint32_t fpscr)
 793:../../../auto/rev0/Drivers/CMSIS/Include/cmsis_gcc.h **** {
 794:../../../auto/rev0/Drivers/CMSIS/Include/cmsis_gcc.h **** #if ((defined (__FPU_PRESENT) && (__FPU_PRESENT == 1U)) && \
 795:../../../auto/rev0/Drivers/CMSIS/Include/cmsis_gcc.h ****      (defined (__FPU_USED   ) && (__FPU_USED    == 1U))     )
 796:../../../auto/rev0/Drivers/CMSIS/Include/cmsis_gcc.h **** #if __has_builtin(__builtin_arm_set_fpscr)
 797:../../../auto/rev0/Drivers/CMSIS/Include/cmsis_gcc.h **** // Re-enable using built-in when GCC has been fixed
 798:../../../auto/rev0/Drivers/CMSIS/Include/cmsis_gcc.h **** // || (__GNUC__ > 7) || (__GNUC__ == 7 && __GNUC_MINOR__ >= 2)
 799:../../../auto/rev0/Drivers/CMSIS/Include/cmsis_gcc.h ****   /* see https://gcc.gnu.org/ml/gcc-patches/2017-04/msg00443.html */
 800:../../../auto/rev0/Drivers/CMSIS/Include/cmsis_gcc.h ****   __builtin_arm_set_fpscr(fpscr);
 801:../../../auto/rev0/Drivers/CMSIS/Include/cmsis_gcc.h **** #else
 802:../../../auto/rev0/Drivers/CMSIS/Include/cmsis_gcc.h ****   __ASM volatile ("VMSR fpscr, %0" : : "r" (fpscr) : "vfpcc", "memory");
ARM GAS  C:\Users\SRY19_~1\AppData\Local\Temp\ccOeh7I2.s 			page 27


 803:../../../auto/rev0/Drivers/CMSIS/Include/cmsis_gcc.h **** #endif
 804:../../../auto/rev0/Drivers/CMSIS/Include/cmsis_gcc.h **** #else
 805:../../../auto/rev0/Drivers/CMSIS/Include/cmsis_gcc.h ****   (void)fpscr;
 806:../../../auto/rev0/Drivers/CMSIS/Include/cmsis_gcc.h **** #endif
 807:../../../auto/rev0/Drivers/CMSIS/Include/cmsis_gcc.h **** }
 808:../../../auto/rev0/Drivers/CMSIS/Include/cmsis_gcc.h **** 
 809:../../../auto/rev0/Drivers/CMSIS/Include/cmsis_gcc.h **** 
 810:../../../auto/rev0/Drivers/CMSIS/Include/cmsis_gcc.h **** /*@} end of CMSIS_Core_RegAccFunctions */
 811:../../../auto/rev0/Drivers/CMSIS/Include/cmsis_gcc.h **** 
 812:../../../auto/rev0/Drivers/CMSIS/Include/cmsis_gcc.h **** 
 813:../../../auto/rev0/Drivers/CMSIS/Include/cmsis_gcc.h **** /* ##########################  Core Instruction Access  ######################### */
 814:../../../auto/rev0/Drivers/CMSIS/Include/cmsis_gcc.h **** /** \defgroup CMSIS_Core_InstructionInterface CMSIS Core Instruction Interface
 815:../../../auto/rev0/Drivers/CMSIS/Include/cmsis_gcc.h ****   Access to dedicated instructions
 816:../../../auto/rev0/Drivers/CMSIS/Include/cmsis_gcc.h ****   @{
 817:../../../auto/rev0/Drivers/CMSIS/Include/cmsis_gcc.h **** */
 818:../../../auto/rev0/Drivers/CMSIS/Include/cmsis_gcc.h **** 
 819:../../../auto/rev0/Drivers/CMSIS/Include/cmsis_gcc.h **** /* Define macros for porting to both thumb1 and thumb2.
 820:../../../auto/rev0/Drivers/CMSIS/Include/cmsis_gcc.h ****  * For thumb1, use low register (r0-r7), specified by constraint "l"
 821:../../../auto/rev0/Drivers/CMSIS/Include/cmsis_gcc.h ****  * Otherwise, use general registers, specified by constraint "r" */
 822:../../../auto/rev0/Drivers/CMSIS/Include/cmsis_gcc.h **** #if defined (__thumb__) && !defined (__thumb2__)
 823:../../../auto/rev0/Drivers/CMSIS/Include/cmsis_gcc.h **** #define __CMSIS_GCC_OUT_REG(r) "=l" (r)
 824:../../../auto/rev0/Drivers/CMSIS/Include/cmsis_gcc.h **** #define __CMSIS_GCC_RW_REG(r) "+l" (r)
 825:../../../auto/rev0/Drivers/CMSIS/Include/cmsis_gcc.h **** #define __CMSIS_GCC_USE_REG(r) "l" (r)
 826:../../../auto/rev0/Drivers/CMSIS/Include/cmsis_gcc.h **** #else
 827:../../../auto/rev0/Drivers/CMSIS/Include/cmsis_gcc.h **** #define __CMSIS_GCC_OUT_REG(r) "=r" (r)
 828:../../../auto/rev0/Drivers/CMSIS/Include/cmsis_gcc.h **** #define __CMSIS_GCC_RW_REG(r) "+r" (r)
 829:../../../auto/rev0/Drivers/CMSIS/Include/cmsis_gcc.h **** #define __CMSIS_GCC_USE_REG(r) "r" (r)
 830:../../../auto/rev0/Drivers/CMSIS/Include/cmsis_gcc.h **** #endif
 831:../../../auto/rev0/Drivers/CMSIS/Include/cmsis_gcc.h **** 
 832:../../../auto/rev0/Drivers/CMSIS/Include/cmsis_gcc.h **** /**
 833:../../../auto/rev0/Drivers/CMSIS/Include/cmsis_gcc.h ****   \brief   No Operation
 834:../../../auto/rev0/Drivers/CMSIS/Include/cmsis_gcc.h ****   \details No Operation does nothing. This instruction can be used for code alignment purposes.
 835:../../../auto/rev0/Drivers/CMSIS/Include/cmsis_gcc.h ****  */
 836:../../../auto/rev0/Drivers/CMSIS/Include/cmsis_gcc.h **** #define __NOP()                             __ASM volatile ("nop")
 837:../../../auto/rev0/Drivers/CMSIS/Include/cmsis_gcc.h **** 
 838:../../../auto/rev0/Drivers/CMSIS/Include/cmsis_gcc.h **** /**
 839:../../../auto/rev0/Drivers/CMSIS/Include/cmsis_gcc.h ****   \brief   Wait For Interrupt
 840:../../../auto/rev0/Drivers/CMSIS/Include/cmsis_gcc.h ****   \details Wait For Interrupt is a hint instruction that suspends execution until one of a number o
 841:../../../auto/rev0/Drivers/CMSIS/Include/cmsis_gcc.h ****  */
 842:../../../auto/rev0/Drivers/CMSIS/Include/cmsis_gcc.h **** #define __WFI()                             __ASM volatile ("wfi")
 843:../../../auto/rev0/Drivers/CMSIS/Include/cmsis_gcc.h **** 
 844:../../../auto/rev0/Drivers/CMSIS/Include/cmsis_gcc.h **** 
 845:../../../auto/rev0/Drivers/CMSIS/Include/cmsis_gcc.h **** /**
 846:../../../auto/rev0/Drivers/CMSIS/Include/cmsis_gcc.h ****   \brief   Wait For Event
 847:../../../auto/rev0/Drivers/CMSIS/Include/cmsis_gcc.h ****   \details Wait For Event is a hint instruction that permits the processor to enter
 848:../../../auto/rev0/Drivers/CMSIS/Include/cmsis_gcc.h ****            a low-power state until one of a number of events occurs.
 849:../../../auto/rev0/Drivers/CMSIS/Include/cmsis_gcc.h ****  */
 850:../../../auto/rev0/Drivers/CMSIS/Include/cmsis_gcc.h **** #define __WFE()                             __ASM volatile ("wfe")
 851:../../../auto/rev0/Drivers/CMSIS/Include/cmsis_gcc.h **** 
 852:../../../auto/rev0/Drivers/CMSIS/Include/cmsis_gcc.h **** 
 853:../../../auto/rev0/Drivers/CMSIS/Include/cmsis_gcc.h **** /**
 854:../../../auto/rev0/Drivers/CMSIS/Include/cmsis_gcc.h ****   \brief   Send Event
 855:../../../auto/rev0/Drivers/CMSIS/Include/cmsis_gcc.h ****   \details Send Event is a hint instruction. It causes an event to be signaled to the CPU.
 856:../../../auto/rev0/Drivers/CMSIS/Include/cmsis_gcc.h ****  */
 857:../../../auto/rev0/Drivers/CMSIS/Include/cmsis_gcc.h **** #define __SEV()                             __ASM volatile ("sev")
 858:../../../auto/rev0/Drivers/CMSIS/Include/cmsis_gcc.h **** 
 859:../../../auto/rev0/Drivers/CMSIS/Include/cmsis_gcc.h **** 
ARM GAS  C:\Users\SRY19_~1\AppData\Local\Temp\ccOeh7I2.s 			page 28


 860:../../../auto/rev0/Drivers/CMSIS/Include/cmsis_gcc.h **** /**
 861:../../../auto/rev0/Drivers/CMSIS/Include/cmsis_gcc.h ****   \brief   Instruction Synchronization Barrier
 862:../../../auto/rev0/Drivers/CMSIS/Include/cmsis_gcc.h ****   \details Instruction Synchronization Barrier flushes the pipeline in the processor,
 863:../../../auto/rev0/Drivers/CMSIS/Include/cmsis_gcc.h ****            so that all instructions following the ISB are fetched from cache or memory,
 864:../../../auto/rev0/Drivers/CMSIS/Include/cmsis_gcc.h ****            after the instruction has been completed.
 865:../../../auto/rev0/Drivers/CMSIS/Include/cmsis_gcc.h ****  */
 866:../../../auto/rev0/Drivers/CMSIS/Include/cmsis_gcc.h **** __STATIC_FORCEINLINE void __ISB(void)
 867:../../../auto/rev0/Drivers/CMSIS/Include/cmsis_gcc.h **** {
 868:../../../auto/rev0/Drivers/CMSIS/Include/cmsis_gcc.h ****   __ASM volatile ("isb 0xF":::"memory");
 869:../../../auto/rev0/Drivers/CMSIS/Include/cmsis_gcc.h **** }
 870:../../../auto/rev0/Drivers/CMSIS/Include/cmsis_gcc.h **** 
 871:../../../auto/rev0/Drivers/CMSIS/Include/cmsis_gcc.h **** 
 872:../../../auto/rev0/Drivers/CMSIS/Include/cmsis_gcc.h **** /**
 873:../../../auto/rev0/Drivers/CMSIS/Include/cmsis_gcc.h ****   \brief   Data Synchronization Barrier
 874:../../../auto/rev0/Drivers/CMSIS/Include/cmsis_gcc.h ****   \details Acts as a special kind of Data Memory Barrier.
 875:../../../auto/rev0/Drivers/CMSIS/Include/cmsis_gcc.h ****            It completes when all explicit memory accesses before this instruction complete.
 876:../../../auto/rev0/Drivers/CMSIS/Include/cmsis_gcc.h ****  */
 877:../../../auto/rev0/Drivers/CMSIS/Include/cmsis_gcc.h **** __STATIC_FORCEINLINE void __DSB(void)
 878:../../../auto/rev0/Drivers/CMSIS/Include/cmsis_gcc.h **** {
 879:../../../auto/rev0/Drivers/CMSIS/Include/cmsis_gcc.h ****   __ASM volatile ("dsb 0xF":::"memory");
 880:../../../auto/rev0/Drivers/CMSIS/Include/cmsis_gcc.h **** }
 881:../../../auto/rev0/Drivers/CMSIS/Include/cmsis_gcc.h **** 
 882:../../../auto/rev0/Drivers/CMSIS/Include/cmsis_gcc.h **** 
 883:../../../auto/rev0/Drivers/CMSIS/Include/cmsis_gcc.h **** /**
 884:../../../auto/rev0/Drivers/CMSIS/Include/cmsis_gcc.h ****   \brief   Data Memory Barrier
 885:../../../auto/rev0/Drivers/CMSIS/Include/cmsis_gcc.h ****   \details Ensures the apparent order of the explicit memory operations before
 886:../../../auto/rev0/Drivers/CMSIS/Include/cmsis_gcc.h ****            and after the instruction, without ensuring their completion.
 887:../../../auto/rev0/Drivers/CMSIS/Include/cmsis_gcc.h ****  */
 888:../../../auto/rev0/Drivers/CMSIS/Include/cmsis_gcc.h **** __STATIC_FORCEINLINE void __DMB(void)
 889:../../../auto/rev0/Drivers/CMSIS/Include/cmsis_gcc.h **** {
 890:../../../auto/rev0/Drivers/CMSIS/Include/cmsis_gcc.h ****   __ASM volatile ("dmb 0xF":::"memory");
 891:../../../auto/rev0/Drivers/CMSIS/Include/cmsis_gcc.h **** }
 892:../../../auto/rev0/Drivers/CMSIS/Include/cmsis_gcc.h **** 
 893:../../../auto/rev0/Drivers/CMSIS/Include/cmsis_gcc.h **** 
 894:../../../auto/rev0/Drivers/CMSIS/Include/cmsis_gcc.h **** /**
 895:../../../auto/rev0/Drivers/CMSIS/Include/cmsis_gcc.h ****   \brief   Reverse byte order (32 bit)
 896:../../../auto/rev0/Drivers/CMSIS/Include/cmsis_gcc.h ****   \details Reverses the byte order in unsigned integer value. For example, 0x12345678 becomes 0x785
 897:../../../auto/rev0/Drivers/CMSIS/Include/cmsis_gcc.h ****   \param [in]    value  Value to reverse
 898:../../../auto/rev0/Drivers/CMSIS/Include/cmsis_gcc.h ****   \return               Reversed value
 899:../../../auto/rev0/Drivers/CMSIS/Include/cmsis_gcc.h ****  */
 900:../../../auto/rev0/Drivers/CMSIS/Include/cmsis_gcc.h **** __STATIC_FORCEINLINE uint32_t __REV(uint32_t value)
 901:../../../auto/rev0/Drivers/CMSIS/Include/cmsis_gcc.h **** {
 902:../../../auto/rev0/Drivers/CMSIS/Include/cmsis_gcc.h **** #if (__GNUC__ > 4) || (__GNUC__ == 4 && __GNUC_MINOR__ >= 5)
 903:../../../auto/rev0/Drivers/CMSIS/Include/cmsis_gcc.h ****   return __builtin_bswap32(value);
 904:../../../auto/rev0/Drivers/CMSIS/Include/cmsis_gcc.h **** #else
 905:../../../auto/rev0/Drivers/CMSIS/Include/cmsis_gcc.h ****   uint32_t result;
 906:../../../auto/rev0/Drivers/CMSIS/Include/cmsis_gcc.h **** 
 907:../../../auto/rev0/Drivers/CMSIS/Include/cmsis_gcc.h ****   __ASM volatile ("rev %0, %1" : __CMSIS_GCC_OUT_REG (result) : __CMSIS_GCC_USE_REG (value) );
 908:../../../auto/rev0/Drivers/CMSIS/Include/cmsis_gcc.h ****   return result;
 909:../../../auto/rev0/Drivers/CMSIS/Include/cmsis_gcc.h **** #endif
 910:../../../auto/rev0/Drivers/CMSIS/Include/cmsis_gcc.h **** }
 911:../../../auto/rev0/Drivers/CMSIS/Include/cmsis_gcc.h **** 
 912:../../../auto/rev0/Drivers/CMSIS/Include/cmsis_gcc.h **** 
 913:../../../auto/rev0/Drivers/CMSIS/Include/cmsis_gcc.h **** /**
 914:../../../auto/rev0/Drivers/CMSIS/Include/cmsis_gcc.h ****   \brief   Reverse byte order (16 bit)
 915:../../../auto/rev0/Drivers/CMSIS/Include/cmsis_gcc.h ****   \details Reverses the byte order within each halfword of a word. For example, 0x12345678 becomes 
 916:../../../auto/rev0/Drivers/CMSIS/Include/cmsis_gcc.h ****   \param [in]    value  Value to reverse
ARM GAS  C:\Users\SRY19_~1\AppData\Local\Temp\ccOeh7I2.s 			page 29


 917:../../../auto/rev0/Drivers/CMSIS/Include/cmsis_gcc.h ****   \return               Reversed value
 918:../../../auto/rev0/Drivers/CMSIS/Include/cmsis_gcc.h ****  */
 919:../../../auto/rev0/Drivers/CMSIS/Include/cmsis_gcc.h **** __STATIC_FORCEINLINE uint32_t __REV16(uint32_t value)
 920:../../../auto/rev0/Drivers/CMSIS/Include/cmsis_gcc.h **** {
 921:../../../auto/rev0/Drivers/CMSIS/Include/cmsis_gcc.h ****   uint32_t result;
 922:../../../auto/rev0/Drivers/CMSIS/Include/cmsis_gcc.h **** 
 923:../../../auto/rev0/Drivers/CMSIS/Include/cmsis_gcc.h ****   __ASM volatile ("rev16 %0, %1" : __CMSIS_GCC_OUT_REG (result) : __CMSIS_GCC_USE_REG (value) );
 924:../../../auto/rev0/Drivers/CMSIS/Include/cmsis_gcc.h ****   return result;
 925:../../../auto/rev0/Drivers/CMSIS/Include/cmsis_gcc.h **** }
 926:../../../auto/rev0/Drivers/CMSIS/Include/cmsis_gcc.h **** 
 927:../../../auto/rev0/Drivers/CMSIS/Include/cmsis_gcc.h **** 
 928:../../../auto/rev0/Drivers/CMSIS/Include/cmsis_gcc.h **** /**
 929:../../../auto/rev0/Drivers/CMSIS/Include/cmsis_gcc.h ****   \brief   Reverse byte order (16 bit)
 930:../../../auto/rev0/Drivers/CMSIS/Include/cmsis_gcc.h ****   \details Reverses the byte order in a 16-bit value and returns the signed 16-bit result. For exam
 931:../../../auto/rev0/Drivers/CMSIS/Include/cmsis_gcc.h ****   \param [in]    value  Value to reverse
 932:../../../auto/rev0/Drivers/CMSIS/Include/cmsis_gcc.h ****   \return               Reversed value
 933:../../../auto/rev0/Drivers/CMSIS/Include/cmsis_gcc.h ****  */
 934:../../../auto/rev0/Drivers/CMSIS/Include/cmsis_gcc.h **** __STATIC_FORCEINLINE int16_t __REVSH(int16_t value)
 935:../../../auto/rev0/Drivers/CMSIS/Include/cmsis_gcc.h **** {
 936:../../../auto/rev0/Drivers/CMSIS/Include/cmsis_gcc.h **** #if (__GNUC__ > 4) || (__GNUC__ == 4 && __GNUC_MINOR__ >= 8)
 937:../../../auto/rev0/Drivers/CMSIS/Include/cmsis_gcc.h ****   return (int16_t)__builtin_bswap16(value);
 938:../../../auto/rev0/Drivers/CMSIS/Include/cmsis_gcc.h **** #else
 939:../../../auto/rev0/Drivers/CMSIS/Include/cmsis_gcc.h ****   int16_t result;
 940:../../../auto/rev0/Drivers/CMSIS/Include/cmsis_gcc.h **** 
 941:../../../auto/rev0/Drivers/CMSIS/Include/cmsis_gcc.h ****   __ASM volatile ("revsh %0, %1" : __CMSIS_GCC_OUT_REG (result) : __CMSIS_GCC_USE_REG (value) );
 942:../../../auto/rev0/Drivers/CMSIS/Include/cmsis_gcc.h ****   return result;
 943:../../../auto/rev0/Drivers/CMSIS/Include/cmsis_gcc.h **** #endif
 944:../../../auto/rev0/Drivers/CMSIS/Include/cmsis_gcc.h **** }
 945:../../../auto/rev0/Drivers/CMSIS/Include/cmsis_gcc.h **** 
 946:../../../auto/rev0/Drivers/CMSIS/Include/cmsis_gcc.h **** 
 947:../../../auto/rev0/Drivers/CMSIS/Include/cmsis_gcc.h **** /**
 948:../../../auto/rev0/Drivers/CMSIS/Include/cmsis_gcc.h ****   \brief   Rotate Right in unsigned value (32 bit)
 949:../../../auto/rev0/Drivers/CMSIS/Include/cmsis_gcc.h ****   \details Rotate Right (immediate) provides the value of the contents of a register rotated by a v
 950:../../../auto/rev0/Drivers/CMSIS/Include/cmsis_gcc.h ****   \param [in]    op1  Value to rotate
 951:../../../auto/rev0/Drivers/CMSIS/Include/cmsis_gcc.h ****   \param [in]    op2  Number of Bits to rotate
 952:../../../auto/rev0/Drivers/CMSIS/Include/cmsis_gcc.h ****   \return               Rotated value
 953:../../../auto/rev0/Drivers/CMSIS/Include/cmsis_gcc.h ****  */
 954:../../../auto/rev0/Drivers/CMSIS/Include/cmsis_gcc.h **** __STATIC_FORCEINLINE uint32_t __ROR(uint32_t op1, uint32_t op2)
 955:../../../auto/rev0/Drivers/CMSIS/Include/cmsis_gcc.h **** {
 956:../../../auto/rev0/Drivers/CMSIS/Include/cmsis_gcc.h ****   op2 %= 32U;
 957:../../../auto/rev0/Drivers/CMSIS/Include/cmsis_gcc.h ****   if (op2 == 0U)
 958:../../../auto/rev0/Drivers/CMSIS/Include/cmsis_gcc.h ****   {
 959:../../../auto/rev0/Drivers/CMSIS/Include/cmsis_gcc.h ****     return op1;
 960:../../../auto/rev0/Drivers/CMSIS/Include/cmsis_gcc.h ****   }
 961:../../../auto/rev0/Drivers/CMSIS/Include/cmsis_gcc.h ****   return (op1 >> op2) | (op1 << (32U - op2));
 962:../../../auto/rev0/Drivers/CMSIS/Include/cmsis_gcc.h **** }
 963:../../../auto/rev0/Drivers/CMSIS/Include/cmsis_gcc.h **** 
 964:../../../auto/rev0/Drivers/CMSIS/Include/cmsis_gcc.h **** 
 965:../../../auto/rev0/Drivers/CMSIS/Include/cmsis_gcc.h **** /**
 966:../../../auto/rev0/Drivers/CMSIS/Include/cmsis_gcc.h ****   \brief   Breakpoint
 967:../../../auto/rev0/Drivers/CMSIS/Include/cmsis_gcc.h ****   \details Causes the processor to enter Debug state.
 968:../../../auto/rev0/Drivers/CMSIS/Include/cmsis_gcc.h ****            Debug tools can use this to investigate system state when the instruction at a particula
 969:../../../auto/rev0/Drivers/CMSIS/Include/cmsis_gcc.h ****   \param [in]    value  is ignored by the processor.
 970:../../../auto/rev0/Drivers/CMSIS/Include/cmsis_gcc.h ****                  If required, a debugger can use it to store additional information about the break
 971:../../../auto/rev0/Drivers/CMSIS/Include/cmsis_gcc.h ****  */
 972:../../../auto/rev0/Drivers/CMSIS/Include/cmsis_gcc.h **** #define __BKPT(value)                       __ASM volatile ("bkpt "#value)
 973:../../../auto/rev0/Drivers/CMSIS/Include/cmsis_gcc.h **** 
ARM GAS  C:\Users\SRY19_~1\AppData\Local\Temp\ccOeh7I2.s 			page 30


 974:../../../auto/rev0/Drivers/CMSIS/Include/cmsis_gcc.h **** 
 975:../../../auto/rev0/Drivers/CMSIS/Include/cmsis_gcc.h **** /**
 976:../../../auto/rev0/Drivers/CMSIS/Include/cmsis_gcc.h ****   \brief   Reverse bit order of value
 977:../../../auto/rev0/Drivers/CMSIS/Include/cmsis_gcc.h ****   \details Reverses the bit order of the given value.
 978:../../../auto/rev0/Drivers/CMSIS/Include/cmsis_gcc.h ****   \param [in]    value  Value to reverse
 979:../../../auto/rev0/Drivers/CMSIS/Include/cmsis_gcc.h ****   \return               Reversed value
 980:../../../auto/rev0/Drivers/CMSIS/Include/cmsis_gcc.h ****  */
 981:../../../auto/rev0/Drivers/CMSIS/Include/cmsis_gcc.h **** __STATIC_FORCEINLINE uint32_t __RBIT(uint32_t value)
 310              		.loc 2 981 31 view .LVU52
 311              	.LBB7:
 982:../../../auto/rev0/Drivers/CMSIS/Include/cmsis_gcc.h **** {
 983:../../../auto/rev0/Drivers/CMSIS/Include/cmsis_gcc.h ****   uint32_t result;
 312              		.loc 2 983 3 view .LVU53
 984:../../../auto/rev0/Drivers/CMSIS/Include/cmsis_gcc.h **** 
 985:../../../auto/rev0/Drivers/CMSIS/Include/cmsis_gcc.h **** #if ((defined (__ARM_ARCH_7M__      ) && (__ARM_ARCH_7M__      == 1)) || \
 986:../../../auto/rev0/Drivers/CMSIS/Include/cmsis_gcc.h ****      (defined (__ARM_ARCH_7EM__     ) && (__ARM_ARCH_7EM__     == 1)) || \
 987:../../../auto/rev0/Drivers/CMSIS/Include/cmsis_gcc.h ****      (defined (__ARM_ARCH_8M_MAIN__ ) && (__ARM_ARCH_8M_MAIN__ == 1))    )
 988:../../../auto/rev0/Drivers/CMSIS/Include/cmsis_gcc.h ****    __ASM volatile ("rbit %0, %1" : "=r" (result) : "r" (value) );
 313              		.loc 2 988 4 view .LVU54
 314              		.syntax unified
 315              	@ 988 "../../../auto/rev0/Drivers/CMSIS/Include/cmsis_gcc.h" 1
 316 0000 90FAA0F0 		rbit r0, r0
 317              	@ 0 "" 2
 318              	.LVL2:
 989:../../../auto/rev0/Drivers/CMSIS/Include/cmsis_gcc.h **** #else
 990:../../../auto/rev0/Drivers/CMSIS/Include/cmsis_gcc.h ****   uint32_t s = (4U /*sizeof(v)*/ * 8U) - 1U; /* extra shift needed at end */
 991:../../../auto/rev0/Drivers/CMSIS/Include/cmsis_gcc.h **** 
 992:../../../auto/rev0/Drivers/CMSIS/Include/cmsis_gcc.h ****   result = value;                      /* r will be reversed bits of v; first get LSB of v */
 993:../../../auto/rev0/Drivers/CMSIS/Include/cmsis_gcc.h ****   for (value >>= 1U; value != 0U; value >>= 1U)
 994:../../../auto/rev0/Drivers/CMSIS/Include/cmsis_gcc.h ****   {
 995:../../../auto/rev0/Drivers/CMSIS/Include/cmsis_gcc.h ****     result <<= 1U;
 996:../../../auto/rev0/Drivers/CMSIS/Include/cmsis_gcc.h ****     result |= value & 1U;
 997:../../../auto/rev0/Drivers/CMSIS/Include/cmsis_gcc.h ****     s--;
 998:../../../auto/rev0/Drivers/CMSIS/Include/cmsis_gcc.h ****   }
 999:../../../auto/rev0/Drivers/CMSIS/Include/cmsis_gcc.h ****   result <<= s;                        /* shift when v's highest bits are zero */
1000:../../../auto/rev0/Drivers/CMSIS/Include/cmsis_gcc.h **** #endif
1001:../../../auto/rev0/Drivers/CMSIS/Include/cmsis_gcc.h ****   return result;
 319              		.loc 2 1001 3 view .LVU55
 320              		.loc 2 1001 3 is_stmt 0 view .LVU56
 321              		.thumb
 322              		.syntax unified
 323              	.LBE7:
 324              	.LBE6:
 325              		.loc 1 386 22 view .LVU57
 326 0004 B0FA80F0 		clz	r0, r0
 327 0008 024B     		ldr	r3, .L25
 328 000a 0344     		add	r3, r3, r0
 329 000c 9B00     		lsls	r3, r3, #2
 330              		.loc 1 386 46 view .LVU58
 331 000e 0122     		movs	r2, #1
 332 0010 1A60     		str	r2, [r3]
 387:../../../auto/rev0/Drivers/STM32F1xx_HAL_Driver/Src/stm32f1xx_hal_pwr.c **** }
 333              		.loc 1 387 1 view .LVU59
 334 0012 7047     		bx	lr
 335              	.L26:
 336              		.align	2
 337              	.L25:
ARM GAS  C:\Users\SRY19_~1\AppData\Local\Temp\ccOeh7I2.s 			page 31


 338 0014 20808310 		.word	277053472
 339              		.cfi_endproc
 340              	.LFE72:
 342              		.section	.text.HAL_PWR_DisableWakeUpPin,"ax",%progbits
 343              		.align	1
 344              		.global	HAL_PWR_DisableWakeUpPin
 345              		.syntax unified
 346              		.thumb
 347              		.thumb_func
 349              	HAL_PWR_DisableWakeUpPin:
 350              	.LVL3:
 351              	.LFB73:
 388:../../../auto/rev0/Drivers/STM32F1xx_HAL_Driver/Src/stm32f1xx_hal_pwr.c **** 
 389:../../../auto/rev0/Drivers/STM32F1xx_HAL_Driver/Src/stm32f1xx_hal_pwr.c **** /**
 390:../../../auto/rev0/Drivers/STM32F1xx_HAL_Driver/Src/stm32f1xx_hal_pwr.c ****   * @brief Disables the WakeUp PINx functionality.
 391:../../../auto/rev0/Drivers/STM32F1xx_HAL_Driver/Src/stm32f1xx_hal_pwr.c ****   * @param WakeUpPinx: Specifies the Power Wake-Up pin to disable.
 392:../../../auto/rev0/Drivers/STM32F1xx_HAL_Driver/Src/stm32f1xx_hal_pwr.c ****   *        This parameter can be one of the following values:
 393:../../../auto/rev0/Drivers/STM32F1xx_HAL_Driver/Src/stm32f1xx_hal_pwr.c ****   *           @arg PWR_WAKEUP_PIN1
 394:../../../auto/rev0/Drivers/STM32F1xx_HAL_Driver/Src/stm32f1xx_hal_pwr.c ****   * @retval None
 395:../../../auto/rev0/Drivers/STM32F1xx_HAL_Driver/Src/stm32f1xx_hal_pwr.c ****   */
 396:../../../auto/rev0/Drivers/STM32F1xx_HAL_Driver/Src/stm32f1xx_hal_pwr.c **** void HAL_PWR_DisableWakeUpPin(uint32_t WakeUpPinx)
 397:../../../auto/rev0/Drivers/STM32F1xx_HAL_Driver/Src/stm32f1xx_hal_pwr.c **** {
 352              		.loc 1 397 1 is_stmt 1 view -0
 353              		.cfi_startproc
 354              		@ args = 0, pretend = 0, frame = 0
 355              		@ frame_needed = 0, uses_anonymous_args = 0
 356              		@ link register save eliminated.
 398:../../../auto/rev0/Drivers/STM32F1xx_HAL_Driver/Src/stm32f1xx_hal_pwr.c ****   /* Check the parameter */
 399:../../../auto/rev0/Drivers/STM32F1xx_HAL_Driver/Src/stm32f1xx_hal_pwr.c ****   assert_param(IS_PWR_WAKEUP_PIN(WakeUpPinx));
 357              		.loc 1 399 3 view .LVU61
 400:../../../auto/rev0/Drivers/STM32F1xx_HAL_Driver/Src/stm32f1xx_hal_pwr.c ****   /* Disable the EWUPx pin */
 401:../../../auto/rev0/Drivers/STM32F1xx_HAL_Driver/Src/stm32f1xx_hal_pwr.c ****   *(__IO uint32_t *) CSR_EWUP_BB(WakeUpPinx) = (uint32_t)DISABLE;
 358              		.loc 1 401 3 view .LVU62
 359              	.LBB8:
 360              	.LBI8:
 981:../../../auto/rev0/Drivers/CMSIS/Include/cmsis_gcc.h **** {
 361              		.loc 2 981 31 view .LVU63
 362              	.LBB9:
 983:../../../auto/rev0/Drivers/CMSIS/Include/cmsis_gcc.h **** 
 363              		.loc 2 983 3 view .LVU64
 988:../../../auto/rev0/Drivers/CMSIS/Include/cmsis_gcc.h **** #else
 364              		.loc 2 988 4 view .LVU65
 365              		.syntax unified
 366              	@ 988 "../../../auto/rev0/Drivers/CMSIS/Include/cmsis_gcc.h" 1
 367 0000 90FAA0F0 		rbit r0, r0
 368              	@ 0 "" 2
 369              	.LVL4:
 370              		.loc 2 1001 3 view .LVU66
 371              		.loc 2 1001 3 is_stmt 0 view .LVU67
 372              		.thumb
 373              		.syntax unified
 374              	.LBE9:
 375              	.LBE8:
 376              		.loc 1 401 22 view .LVU68
 377 0004 B0FA80F0 		clz	r0, r0
 378 0008 024B     		ldr	r3, .L28
 379 000a 0344     		add	r3, r3, r0
ARM GAS  C:\Users\SRY19_~1\AppData\Local\Temp\ccOeh7I2.s 			page 32


 380 000c 9B00     		lsls	r3, r3, #2
 381              		.loc 1 401 46 view .LVU69
 382 000e 0022     		movs	r2, #0
 383 0010 1A60     		str	r2, [r3]
 402:../../../auto/rev0/Drivers/STM32F1xx_HAL_Driver/Src/stm32f1xx_hal_pwr.c **** }
 384              		.loc 1 402 1 view .LVU70
 385 0012 7047     		bx	lr
 386              	.L29:
 387              		.align	2
 388              	.L28:
 389 0014 20808310 		.word	277053472
 390              		.cfi_endproc
 391              	.LFE73:
 393              		.section	.text.HAL_PWR_EnterSLEEPMode,"ax",%progbits
 394              		.align	1
 395              		.global	HAL_PWR_EnterSLEEPMode
 396              		.syntax unified
 397              		.thumb
 398              		.thumb_func
 400              	HAL_PWR_EnterSLEEPMode:
 401              	.LVL5:
 402              	.LFB74:
 403:../../../auto/rev0/Drivers/STM32F1xx_HAL_Driver/Src/stm32f1xx_hal_pwr.c **** 
 404:../../../auto/rev0/Drivers/STM32F1xx_HAL_Driver/Src/stm32f1xx_hal_pwr.c **** /**
 405:../../../auto/rev0/Drivers/STM32F1xx_HAL_Driver/Src/stm32f1xx_hal_pwr.c ****   * @brief Enters Sleep mode.
 406:../../../auto/rev0/Drivers/STM32F1xx_HAL_Driver/Src/stm32f1xx_hal_pwr.c ****   * @note  In Sleep mode, all I/O pins keep the same state as in Run mode.
 407:../../../auto/rev0/Drivers/STM32F1xx_HAL_Driver/Src/stm32f1xx_hal_pwr.c ****   * @param Regulator: Regulator state as no effect in SLEEP mode -  allows to support portability f
 408:../../../auto/rev0/Drivers/STM32F1xx_HAL_Driver/Src/stm32f1xx_hal_pwr.c ****   * @param SLEEPEntry: Specifies if SLEEP mode is entered with WFI or WFE instruction.
 409:../../../auto/rev0/Drivers/STM32F1xx_HAL_Driver/Src/stm32f1xx_hal_pwr.c ****   *           When WFI entry is used, tick interrupt have to be disabled if not desired as 
 410:../../../auto/rev0/Drivers/STM32F1xx_HAL_Driver/Src/stm32f1xx_hal_pwr.c ****   *           the interrupt wake up source.
 411:../../../auto/rev0/Drivers/STM32F1xx_HAL_Driver/Src/stm32f1xx_hal_pwr.c ****   *           This parameter can be one of the following values:
 412:../../../auto/rev0/Drivers/STM32F1xx_HAL_Driver/Src/stm32f1xx_hal_pwr.c ****   *            @arg PWR_SLEEPENTRY_WFI: enter SLEEP mode with WFI instruction
 413:../../../auto/rev0/Drivers/STM32F1xx_HAL_Driver/Src/stm32f1xx_hal_pwr.c ****   *            @arg PWR_SLEEPENTRY_WFE: enter SLEEP mode with WFE instruction
 414:../../../auto/rev0/Drivers/STM32F1xx_HAL_Driver/Src/stm32f1xx_hal_pwr.c ****   * @retval None
 415:../../../auto/rev0/Drivers/STM32F1xx_HAL_Driver/Src/stm32f1xx_hal_pwr.c ****   */
 416:../../../auto/rev0/Drivers/STM32F1xx_HAL_Driver/Src/stm32f1xx_hal_pwr.c **** void HAL_PWR_EnterSLEEPMode(uint32_t Regulator, uint8_t SLEEPEntry)
 417:../../../auto/rev0/Drivers/STM32F1xx_HAL_Driver/Src/stm32f1xx_hal_pwr.c **** {
 403              		.loc 1 417 1 is_stmt 1 view -0
 404              		.cfi_startproc
 405              		@ args = 0, pretend = 0, frame = 0
 406              		@ frame_needed = 0, uses_anonymous_args = 0
 407              		@ link register save eliminated.
 418:../../../auto/rev0/Drivers/STM32F1xx_HAL_Driver/Src/stm32f1xx_hal_pwr.c ****   /* Check the parameters */
 419:../../../auto/rev0/Drivers/STM32F1xx_HAL_Driver/Src/stm32f1xx_hal_pwr.c ****   /* No check on Regulator because parameter not used in SLEEP mode */
 420:../../../auto/rev0/Drivers/STM32F1xx_HAL_Driver/Src/stm32f1xx_hal_pwr.c ****   /* Prevent unused argument(s) compilation warning */
 421:../../../auto/rev0/Drivers/STM32F1xx_HAL_Driver/Src/stm32f1xx_hal_pwr.c ****   UNUSED(Regulator);
 408              		.loc 1 421 3 view .LVU72
 422:../../../auto/rev0/Drivers/STM32F1xx_HAL_Driver/Src/stm32f1xx_hal_pwr.c **** 
 423:../../../auto/rev0/Drivers/STM32F1xx_HAL_Driver/Src/stm32f1xx_hal_pwr.c ****   assert_param(IS_PWR_SLEEP_ENTRY(SLEEPEntry));
 409              		.loc 1 423 3 view .LVU73
 424:../../../auto/rev0/Drivers/STM32F1xx_HAL_Driver/Src/stm32f1xx_hal_pwr.c **** 
 425:../../../auto/rev0/Drivers/STM32F1xx_HAL_Driver/Src/stm32f1xx_hal_pwr.c ****   /* Clear SLEEPDEEP bit of Cortex System Control Register */
 426:../../../auto/rev0/Drivers/STM32F1xx_HAL_Driver/Src/stm32f1xx_hal_pwr.c ****   CLEAR_BIT(SCB->SCR, ((uint32_t)SCB_SCR_SLEEPDEEP_Msk));
 410              		.loc 1 426 3 view .LVU74
 411 0000 064A     		ldr	r2, .L34
 412 0002 1369     		ldr	r3, [r2, #16]
 413 0004 23F00403 		bic	r3, r3, #4
ARM GAS  C:\Users\SRY19_~1\AppData\Local\Temp\ccOeh7I2.s 			page 33


 414 0008 1361     		str	r3, [r2, #16]
 427:../../../auto/rev0/Drivers/STM32F1xx_HAL_Driver/Src/stm32f1xx_hal_pwr.c **** 
 428:../../../auto/rev0/Drivers/STM32F1xx_HAL_Driver/Src/stm32f1xx_hal_pwr.c ****   /* Select SLEEP mode entry -------------------------------------------------*/
 429:../../../auto/rev0/Drivers/STM32F1xx_HAL_Driver/Src/stm32f1xx_hal_pwr.c ****   if(SLEEPEntry == PWR_SLEEPENTRY_WFI)
 415              		.loc 1 429 3 view .LVU75
 416              		.loc 1 429 5 is_stmt 0 view .LVU76
 417 000a 0129     		cmp	r1, #1
 418 000c 03D0     		beq	.L33
 430:../../../auto/rev0/Drivers/STM32F1xx_HAL_Driver/Src/stm32f1xx_hal_pwr.c ****   {
 431:../../../auto/rev0/Drivers/STM32F1xx_HAL_Driver/Src/stm32f1xx_hal_pwr.c ****     /* Request Wait For Interrupt */
 432:../../../auto/rev0/Drivers/STM32F1xx_HAL_Driver/Src/stm32f1xx_hal_pwr.c ****     __WFI();
 433:../../../auto/rev0/Drivers/STM32F1xx_HAL_Driver/Src/stm32f1xx_hal_pwr.c ****   }
 434:../../../auto/rev0/Drivers/STM32F1xx_HAL_Driver/Src/stm32f1xx_hal_pwr.c ****   else
 435:../../../auto/rev0/Drivers/STM32F1xx_HAL_Driver/Src/stm32f1xx_hal_pwr.c ****   {
 436:../../../auto/rev0/Drivers/STM32F1xx_HAL_Driver/Src/stm32f1xx_hal_pwr.c ****     /* Request Wait For Event */
 437:../../../auto/rev0/Drivers/STM32F1xx_HAL_Driver/Src/stm32f1xx_hal_pwr.c ****     __SEV();
 419              		.loc 1 437 5 is_stmt 1 view .LVU77
 420              		.syntax unified
 421              	@ 437 "../../../auto/rev0/Drivers/STM32F1xx_HAL_Driver/Src/stm32f1xx_hal_pwr.c" 1
 422 000e 40BF     		sev
 423              	@ 0 "" 2
 438:../../../auto/rev0/Drivers/STM32F1xx_HAL_Driver/Src/stm32f1xx_hal_pwr.c ****     __WFE();
 424              		.loc 1 438 5 view .LVU78
 425              	@ 438 "../../../auto/rev0/Drivers/STM32F1xx_HAL_Driver/Src/stm32f1xx_hal_pwr.c" 1
 426 0010 20BF     		wfe
 427              	@ 0 "" 2
 439:../../../auto/rev0/Drivers/STM32F1xx_HAL_Driver/Src/stm32f1xx_hal_pwr.c ****     __WFE();
 428              		.loc 1 439 5 view .LVU79
 429              	@ 439 "../../../auto/rev0/Drivers/STM32F1xx_HAL_Driver/Src/stm32f1xx_hal_pwr.c" 1
 430 0012 20BF     		wfe
 431              	@ 0 "" 2
 440:../../../auto/rev0/Drivers/STM32F1xx_HAL_Driver/Src/stm32f1xx_hal_pwr.c ****   }
 441:../../../auto/rev0/Drivers/STM32F1xx_HAL_Driver/Src/stm32f1xx_hal_pwr.c **** }
 432              		.loc 1 441 1 is_stmt 0 view .LVU80
 433              		.thumb
 434              		.syntax unified
 435 0014 7047     		bx	lr
 436              	.L33:
 432:../../../auto/rev0/Drivers/STM32F1xx_HAL_Driver/Src/stm32f1xx_hal_pwr.c ****   }
 437              		.loc 1 432 5 is_stmt 1 view .LVU81
 438              		.syntax unified
 439              	@ 432 "../../../auto/rev0/Drivers/STM32F1xx_HAL_Driver/Src/stm32f1xx_hal_pwr.c" 1
 440 0016 30BF     		wfi
 441              	@ 0 "" 2
 442              		.thumb
 443              		.syntax unified
 444 0018 7047     		bx	lr
 445              	.L35:
 446 001a 00BF     		.align	2
 447              	.L34:
 448 001c 00ED00E0 		.word	-536810240
 449              		.cfi_endproc
 450              	.LFE74:
 452              		.section	.text.HAL_PWR_EnterSTOPMode,"ax",%progbits
 453              		.align	1
 454              		.global	HAL_PWR_EnterSTOPMode
 455              		.syntax unified
ARM GAS  C:\Users\SRY19_~1\AppData\Local\Temp\ccOeh7I2.s 			page 34


 456              		.thumb
 457              		.thumb_func
 459              	HAL_PWR_EnterSTOPMode:
 460              	.LVL6:
 461              	.LFB75:
 442:../../../auto/rev0/Drivers/STM32F1xx_HAL_Driver/Src/stm32f1xx_hal_pwr.c **** 
 443:../../../auto/rev0/Drivers/STM32F1xx_HAL_Driver/Src/stm32f1xx_hal_pwr.c **** /**
 444:../../../auto/rev0/Drivers/STM32F1xx_HAL_Driver/Src/stm32f1xx_hal_pwr.c ****   * @brief Enters Stop mode. 
 445:../../../auto/rev0/Drivers/STM32F1xx_HAL_Driver/Src/stm32f1xx_hal_pwr.c ****   * @note  In Stop mode, all I/O pins keep the same state as in Run mode.
 446:../../../auto/rev0/Drivers/STM32F1xx_HAL_Driver/Src/stm32f1xx_hal_pwr.c ****   * @note  When exiting Stop mode by using an interrupt or a wakeup event,
 447:../../../auto/rev0/Drivers/STM32F1xx_HAL_Driver/Src/stm32f1xx_hal_pwr.c ****   *        HSI RC oscillator is selected as system clock.
 448:../../../auto/rev0/Drivers/STM32F1xx_HAL_Driver/Src/stm32f1xx_hal_pwr.c ****   * @note  When the voltage regulator operates in low power mode, an additional
 449:../../../auto/rev0/Drivers/STM32F1xx_HAL_Driver/Src/stm32f1xx_hal_pwr.c ****   *         startup delay is incurred when waking up from Stop mode. 
 450:../../../auto/rev0/Drivers/STM32F1xx_HAL_Driver/Src/stm32f1xx_hal_pwr.c ****   *         By keeping the internal regulator ON during Stop mode, the consumption
 451:../../../auto/rev0/Drivers/STM32F1xx_HAL_Driver/Src/stm32f1xx_hal_pwr.c ****   *         is higher although the startup time is reduced.    
 452:../../../auto/rev0/Drivers/STM32F1xx_HAL_Driver/Src/stm32f1xx_hal_pwr.c ****   * @param Regulator: Specifies the regulator state in Stop mode.
 453:../../../auto/rev0/Drivers/STM32F1xx_HAL_Driver/Src/stm32f1xx_hal_pwr.c ****   *          This parameter can be one of the following values:
 454:../../../auto/rev0/Drivers/STM32F1xx_HAL_Driver/Src/stm32f1xx_hal_pwr.c ****   *            @arg PWR_MAINREGULATOR_ON: Stop mode with regulator ON
 455:../../../auto/rev0/Drivers/STM32F1xx_HAL_Driver/Src/stm32f1xx_hal_pwr.c ****   *            @arg PWR_LOWPOWERREGULATOR_ON: Stop mode with low power regulator ON
 456:../../../auto/rev0/Drivers/STM32F1xx_HAL_Driver/Src/stm32f1xx_hal_pwr.c ****   * @param STOPEntry: Specifies if Stop mode in entered with WFI or WFE instruction.
 457:../../../auto/rev0/Drivers/STM32F1xx_HAL_Driver/Src/stm32f1xx_hal_pwr.c ****   *          This parameter can be one of the following values:
 458:../../../auto/rev0/Drivers/STM32F1xx_HAL_Driver/Src/stm32f1xx_hal_pwr.c ****   *            @arg PWR_STOPENTRY_WFI: Enter Stop mode with WFI instruction
 459:../../../auto/rev0/Drivers/STM32F1xx_HAL_Driver/Src/stm32f1xx_hal_pwr.c ****   *            @arg PWR_STOPENTRY_WFE: Enter Stop mode with WFE instruction   
 460:../../../auto/rev0/Drivers/STM32F1xx_HAL_Driver/Src/stm32f1xx_hal_pwr.c ****   * @retval None
 461:../../../auto/rev0/Drivers/STM32F1xx_HAL_Driver/Src/stm32f1xx_hal_pwr.c ****   */
 462:../../../auto/rev0/Drivers/STM32F1xx_HAL_Driver/Src/stm32f1xx_hal_pwr.c **** void HAL_PWR_EnterSTOPMode(uint32_t Regulator, uint8_t STOPEntry)
 463:../../../auto/rev0/Drivers/STM32F1xx_HAL_Driver/Src/stm32f1xx_hal_pwr.c **** {
 462              		.loc 1 463 1 view -0
 463              		.cfi_startproc
 464              		@ args = 0, pretend = 0, frame = 0
 465              		@ frame_needed = 0, uses_anonymous_args = 0
 466              		.loc 1 463 1 is_stmt 0 view .LVU83
 467 0000 10B5     		push	{r4, lr}
 468              	.LCFI0:
 469              		.cfi_def_cfa_offset 8
 470              		.cfi_offset 4, -8
 471              		.cfi_offset 14, -4
 464:../../../auto/rev0/Drivers/STM32F1xx_HAL_Driver/Src/stm32f1xx_hal_pwr.c ****   /* Check the parameters */
 465:../../../auto/rev0/Drivers/STM32F1xx_HAL_Driver/Src/stm32f1xx_hal_pwr.c ****   assert_param(IS_PWR_REGULATOR(Regulator));
 472              		.loc 1 465 3 is_stmt 1 view .LVU84
 466:../../../auto/rev0/Drivers/STM32F1xx_HAL_Driver/Src/stm32f1xx_hal_pwr.c ****   assert_param(IS_PWR_STOP_ENTRY(STOPEntry));
 473              		.loc 1 466 3 view .LVU85
 467:../../../auto/rev0/Drivers/STM32F1xx_HAL_Driver/Src/stm32f1xx_hal_pwr.c **** 
 468:../../../auto/rev0/Drivers/STM32F1xx_HAL_Driver/Src/stm32f1xx_hal_pwr.c ****   /* Clear PDDS bit in PWR register to specify entering in STOP mode when CPU enter in Deepsleep */
 469:../../../auto/rev0/Drivers/STM32F1xx_HAL_Driver/Src/stm32f1xx_hal_pwr.c ****   CLEAR_BIT(PWR->CR,  PWR_CR_PDDS);
 474              		.loc 1 469 3 view .LVU86
 475 0002 0F4A     		ldr	r2, .L40
 476 0004 1468     		ldr	r4, [r2]
 477 0006 24F00204 		bic	r4, r4, #2
 478 000a 1460     		str	r4, [r2]
 470:../../../auto/rev0/Drivers/STM32F1xx_HAL_Driver/Src/stm32f1xx_hal_pwr.c **** 
 471:../../../auto/rev0/Drivers/STM32F1xx_HAL_Driver/Src/stm32f1xx_hal_pwr.c ****   /* Select the voltage regulator mode by setting LPDS bit in PWR register according to Regulator p
 472:../../../auto/rev0/Drivers/STM32F1xx_HAL_Driver/Src/stm32f1xx_hal_pwr.c ****   MODIFY_REG(PWR->CR, PWR_CR_LPDS, Regulator);
 479              		.loc 1 472 3 view .LVU87
 480 000c 1368     		ldr	r3, [r2]
 481 000e 23F00103 		bic	r3, r3, #1
 482 0012 0343     		orrs	r3, r3, r0
ARM GAS  C:\Users\SRY19_~1\AppData\Local\Temp\ccOeh7I2.s 			page 35


 483 0014 1360     		str	r3, [r2]
 473:../../../auto/rev0/Drivers/STM32F1xx_HAL_Driver/Src/stm32f1xx_hal_pwr.c **** 
 474:../../../auto/rev0/Drivers/STM32F1xx_HAL_Driver/Src/stm32f1xx_hal_pwr.c ****   /* Set SLEEPDEEP bit of Cortex System Control Register */
 475:../../../auto/rev0/Drivers/STM32F1xx_HAL_Driver/Src/stm32f1xx_hal_pwr.c ****   SET_BIT(SCB->SCR, ((uint32_t)SCB_SCR_SLEEPDEEP_Msk));
 484              		.loc 1 475 3 view .LVU88
 485 0016 0B4A     		ldr	r2, .L40+4
 486 0018 1369     		ldr	r3, [r2, #16]
 487 001a 43F00403 		orr	r3, r3, #4
 488 001e 1361     		str	r3, [r2, #16]
 476:../../../auto/rev0/Drivers/STM32F1xx_HAL_Driver/Src/stm32f1xx_hal_pwr.c **** 
 477:../../../auto/rev0/Drivers/STM32F1xx_HAL_Driver/Src/stm32f1xx_hal_pwr.c ****   /* Select Stop mode entry --------------------------------------------------*/
 478:../../../auto/rev0/Drivers/STM32F1xx_HAL_Driver/Src/stm32f1xx_hal_pwr.c ****   if(STOPEntry == PWR_STOPENTRY_WFI)
 489              		.loc 1 478 3 view .LVU89
 490              		.loc 1 478 5 is_stmt 0 view .LVU90
 491 0020 0129     		cmp	r1, #1
 492 0022 06D1     		bne	.L37
 479:../../../auto/rev0/Drivers/STM32F1xx_HAL_Driver/Src/stm32f1xx_hal_pwr.c ****   {
 480:../../../auto/rev0/Drivers/STM32F1xx_HAL_Driver/Src/stm32f1xx_hal_pwr.c ****     /* Request Wait For Interrupt */
 481:../../../auto/rev0/Drivers/STM32F1xx_HAL_Driver/Src/stm32f1xx_hal_pwr.c ****     __WFI();
 493              		.loc 1 481 5 is_stmt 1 view .LVU91
 494              		.syntax unified
 495              	@ 481 "../../../auto/rev0/Drivers/STM32F1xx_HAL_Driver/Src/stm32f1xx_hal_pwr.c" 1
 496 0024 30BF     		wfi
 497              	@ 0 "" 2
 498              	.LVL7:
 499              		.thumb
 500              		.syntax unified
 501              	.L38:
 482:../../../auto/rev0/Drivers/STM32F1xx_HAL_Driver/Src/stm32f1xx_hal_pwr.c ****   }
 483:../../../auto/rev0/Drivers/STM32F1xx_HAL_Driver/Src/stm32f1xx_hal_pwr.c ****   else
 484:../../../auto/rev0/Drivers/STM32F1xx_HAL_Driver/Src/stm32f1xx_hal_pwr.c ****   {
 485:../../../auto/rev0/Drivers/STM32F1xx_HAL_Driver/Src/stm32f1xx_hal_pwr.c ****     /* Request Wait For Event */
 486:../../../auto/rev0/Drivers/STM32F1xx_HAL_Driver/Src/stm32f1xx_hal_pwr.c ****     __SEV();
 487:../../../auto/rev0/Drivers/STM32F1xx_HAL_Driver/Src/stm32f1xx_hal_pwr.c ****     PWR_OverloadWfe(); /* WFE redefine locally */
 488:../../../auto/rev0/Drivers/STM32F1xx_HAL_Driver/Src/stm32f1xx_hal_pwr.c ****     PWR_OverloadWfe(); /* WFE redefine locally */
 489:../../../auto/rev0/Drivers/STM32F1xx_HAL_Driver/Src/stm32f1xx_hal_pwr.c ****   }
 490:../../../auto/rev0/Drivers/STM32F1xx_HAL_Driver/Src/stm32f1xx_hal_pwr.c ****   /* Reset SLEEPDEEP bit of Cortex System Control Register */
 491:../../../auto/rev0/Drivers/STM32F1xx_HAL_Driver/Src/stm32f1xx_hal_pwr.c ****   CLEAR_BIT(SCB->SCR, ((uint32_t)SCB_SCR_SLEEPDEEP_Msk));
 502              		.loc 1 491 3 view .LVU92
 503 0026 074A     		ldr	r2, .L40+4
 504 0028 1369     		ldr	r3, [r2, #16]
 505 002a 23F00403 		bic	r3, r3, #4
 506 002e 1361     		str	r3, [r2, #16]
 492:../../../auto/rev0/Drivers/STM32F1xx_HAL_Driver/Src/stm32f1xx_hal_pwr.c **** }
 507              		.loc 1 492 1 is_stmt 0 view .LVU93
 508 0030 10BD     		pop	{r4, pc}
 509              	.LVL8:
 510              	.L37:
 486:../../../auto/rev0/Drivers/STM32F1xx_HAL_Driver/Src/stm32f1xx_hal_pwr.c ****     PWR_OverloadWfe(); /* WFE redefine locally */
 511              		.loc 1 486 5 is_stmt 1 view .LVU94
 512              		.syntax unified
 513              	@ 486 "../../../auto/rev0/Drivers/STM32F1xx_HAL_Driver/Src/stm32f1xx_hal_pwr.c" 1
 514 0032 40BF     		sev
 515              	@ 0 "" 2
 487:../../../auto/rev0/Drivers/STM32F1xx_HAL_Driver/Src/stm32f1xx_hal_pwr.c ****     PWR_OverloadWfe(); /* WFE redefine locally */
 516              		.loc 1 487 5 view .LVU95
 517              		.thumb
ARM GAS  C:\Users\SRY19_~1\AppData\Local\Temp\ccOeh7I2.s 			page 36


 518              		.syntax unified
 519 0034 FFF7FEFF 		bl	PWR_OverloadWfe
 520              	.LVL9:
 488:../../../auto/rev0/Drivers/STM32F1xx_HAL_Driver/Src/stm32f1xx_hal_pwr.c ****   }
 521              		.loc 1 488 5 view .LVU96
 522 0038 FFF7FEFF 		bl	PWR_OverloadWfe
 523              	.LVL10:
 524 003c F3E7     		b	.L38
 525              	.L41:
 526 003e 00BF     		.align	2
 527              	.L40:
 528 0040 00700040 		.word	1073770496
 529 0044 00ED00E0 		.word	-536810240
 530              		.cfi_endproc
 531              	.LFE75:
 533              		.section	.text.HAL_PWR_EnterSTANDBYMode,"ax",%progbits
 534              		.align	1
 535              		.global	HAL_PWR_EnterSTANDBYMode
 536              		.syntax unified
 537              		.thumb
 538              		.thumb_func
 540              	HAL_PWR_EnterSTANDBYMode:
 541              	.LFB76:
 493:../../../auto/rev0/Drivers/STM32F1xx_HAL_Driver/Src/stm32f1xx_hal_pwr.c **** 
 494:../../../auto/rev0/Drivers/STM32F1xx_HAL_Driver/Src/stm32f1xx_hal_pwr.c **** /**
 495:../../../auto/rev0/Drivers/STM32F1xx_HAL_Driver/Src/stm32f1xx_hal_pwr.c ****   * @brief Enters Standby mode.
 496:../../../auto/rev0/Drivers/STM32F1xx_HAL_Driver/Src/stm32f1xx_hal_pwr.c ****   * @note  In Standby mode, all I/O pins are high impedance except for:
 497:../../../auto/rev0/Drivers/STM32F1xx_HAL_Driver/Src/stm32f1xx_hal_pwr.c ****   *          - Reset pad (still available) 
 498:../../../auto/rev0/Drivers/STM32F1xx_HAL_Driver/Src/stm32f1xx_hal_pwr.c ****   *          - TAMPER pin if configured for tamper or calibration out.
 499:../../../auto/rev0/Drivers/STM32F1xx_HAL_Driver/Src/stm32f1xx_hal_pwr.c ****   *          - WKUP pin (PA0) if enabled.
 500:../../../auto/rev0/Drivers/STM32F1xx_HAL_Driver/Src/stm32f1xx_hal_pwr.c ****   * @retval None
 501:../../../auto/rev0/Drivers/STM32F1xx_HAL_Driver/Src/stm32f1xx_hal_pwr.c ****   */
 502:../../../auto/rev0/Drivers/STM32F1xx_HAL_Driver/Src/stm32f1xx_hal_pwr.c **** void HAL_PWR_EnterSTANDBYMode(void)
 503:../../../auto/rev0/Drivers/STM32F1xx_HAL_Driver/Src/stm32f1xx_hal_pwr.c **** {
 542              		.loc 1 503 1 view -0
 543              		.cfi_startproc
 544              		@ args = 0, pretend = 0, frame = 0
 545              		@ frame_needed = 0, uses_anonymous_args = 0
 546              		@ link register save eliminated.
 504:../../../auto/rev0/Drivers/STM32F1xx_HAL_Driver/Src/stm32f1xx_hal_pwr.c ****   /* Select Standby mode */
 505:../../../auto/rev0/Drivers/STM32F1xx_HAL_Driver/Src/stm32f1xx_hal_pwr.c ****   SET_BIT(PWR->CR, PWR_CR_PDDS);
 547              		.loc 1 505 3 view .LVU98
 548 0000 054A     		ldr	r2, .L43
 549 0002 1368     		ldr	r3, [r2]
 550 0004 43F00203 		orr	r3, r3, #2
 551 0008 1360     		str	r3, [r2]
 506:../../../auto/rev0/Drivers/STM32F1xx_HAL_Driver/Src/stm32f1xx_hal_pwr.c **** 
 507:../../../auto/rev0/Drivers/STM32F1xx_HAL_Driver/Src/stm32f1xx_hal_pwr.c ****   /* Set SLEEPDEEP bit of Cortex System Control Register */
 508:../../../auto/rev0/Drivers/STM32F1xx_HAL_Driver/Src/stm32f1xx_hal_pwr.c ****   SET_BIT(SCB->SCR, ((uint32_t)SCB_SCR_SLEEPDEEP_Msk));
 552              		.loc 1 508 3 view .LVU99
 553 000a 044A     		ldr	r2, .L43+4
 554 000c 1369     		ldr	r3, [r2, #16]
 555 000e 43F00403 		orr	r3, r3, #4
 556 0012 1361     		str	r3, [r2, #16]
 509:../../../auto/rev0/Drivers/STM32F1xx_HAL_Driver/Src/stm32f1xx_hal_pwr.c **** 
 510:../../../auto/rev0/Drivers/STM32F1xx_HAL_Driver/Src/stm32f1xx_hal_pwr.c ****   /* This option is used to ensure that store operations are completed */
 511:../../../auto/rev0/Drivers/STM32F1xx_HAL_Driver/Src/stm32f1xx_hal_pwr.c **** #if defined ( __CC_ARM)
ARM GAS  C:\Users\SRY19_~1\AppData\Local\Temp\ccOeh7I2.s 			page 37


 512:../../../auto/rev0/Drivers/STM32F1xx_HAL_Driver/Src/stm32f1xx_hal_pwr.c ****   __force_stores();
 513:../../../auto/rev0/Drivers/STM32F1xx_HAL_Driver/Src/stm32f1xx_hal_pwr.c **** #endif
 514:../../../auto/rev0/Drivers/STM32F1xx_HAL_Driver/Src/stm32f1xx_hal_pwr.c ****   /* Request Wait For Interrupt */
 515:../../../auto/rev0/Drivers/STM32F1xx_HAL_Driver/Src/stm32f1xx_hal_pwr.c ****   __WFI();
 557              		.loc 1 515 3 view .LVU100
 558              		.syntax unified
 559              	@ 515 "../../../auto/rev0/Drivers/STM32F1xx_HAL_Driver/Src/stm32f1xx_hal_pwr.c" 1
 560 0014 30BF     		wfi
 561              	@ 0 "" 2
 516:../../../auto/rev0/Drivers/STM32F1xx_HAL_Driver/Src/stm32f1xx_hal_pwr.c **** }
 562              		.loc 1 516 1 is_stmt 0 view .LVU101
 563              		.thumb
 564              		.syntax unified
 565 0016 7047     		bx	lr
 566              	.L44:
 567              		.align	2
 568              	.L43:
 569 0018 00700040 		.word	1073770496
 570 001c 00ED00E0 		.word	-536810240
 571              		.cfi_endproc
 572              	.LFE76:
 574              		.section	.text.HAL_PWR_EnableSleepOnExit,"ax",%progbits
 575              		.align	1
 576              		.global	HAL_PWR_EnableSleepOnExit
 577              		.syntax unified
 578              		.thumb
 579              		.thumb_func
 581              	HAL_PWR_EnableSleepOnExit:
 582              	.LFB77:
 517:../../../auto/rev0/Drivers/STM32F1xx_HAL_Driver/Src/stm32f1xx_hal_pwr.c **** 
 518:../../../auto/rev0/Drivers/STM32F1xx_HAL_Driver/Src/stm32f1xx_hal_pwr.c **** 
 519:../../../auto/rev0/Drivers/STM32F1xx_HAL_Driver/Src/stm32f1xx_hal_pwr.c **** /**
 520:../../../auto/rev0/Drivers/STM32F1xx_HAL_Driver/Src/stm32f1xx_hal_pwr.c ****   * @brief Indicates Sleep-On-Exit when returning from Handler mode to Thread mode. 
 521:../../../auto/rev0/Drivers/STM32F1xx_HAL_Driver/Src/stm32f1xx_hal_pwr.c ****   * @note Set SLEEPONEXIT bit of SCR register. When this bit is set, the processor 
 522:../../../auto/rev0/Drivers/STM32F1xx_HAL_Driver/Src/stm32f1xx_hal_pwr.c ****   *       re-enters SLEEP mode when an interruption handling is over.
 523:../../../auto/rev0/Drivers/STM32F1xx_HAL_Driver/Src/stm32f1xx_hal_pwr.c ****   *       Setting this bit is useful when the processor is expected to run only on
 524:../../../auto/rev0/Drivers/STM32F1xx_HAL_Driver/Src/stm32f1xx_hal_pwr.c ****   *       interruptions handling.         
 525:../../../auto/rev0/Drivers/STM32F1xx_HAL_Driver/Src/stm32f1xx_hal_pwr.c ****   * @retval None
 526:../../../auto/rev0/Drivers/STM32F1xx_HAL_Driver/Src/stm32f1xx_hal_pwr.c ****   */
 527:../../../auto/rev0/Drivers/STM32F1xx_HAL_Driver/Src/stm32f1xx_hal_pwr.c **** void HAL_PWR_EnableSleepOnExit(void)
 528:../../../auto/rev0/Drivers/STM32F1xx_HAL_Driver/Src/stm32f1xx_hal_pwr.c **** {
 583              		.loc 1 528 1 is_stmt 1 view -0
 584              		.cfi_startproc
 585              		@ args = 0, pretend = 0, frame = 0
 586              		@ frame_needed = 0, uses_anonymous_args = 0
 587              		@ link register save eliminated.
 529:../../../auto/rev0/Drivers/STM32F1xx_HAL_Driver/Src/stm32f1xx_hal_pwr.c ****   /* Set SLEEPONEXIT bit of Cortex System Control Register */
 530:../../../auto/rev0/Drivers/STM32F1xx_HAL_Driver/Src/stm32f1xx_hal_pwr.c ****   SET_BIT(SCB->SCR, ((uint32_t)SCB_SCR_SLEEPONEXIT_Msk));
 588              		.loc 1 530 3 view .LVU103
 589 0000 024A     		ldr	r2, .L46
 590 0002 1369     		ldr	r3, [r2, #16]
 591 0004 43F00203 		orr	r3, r3, #2
 592 0008 1361     		str	r3, [r2, #16]
 531:../../../auto/rev0/Drivers/STM32F1xx_HAL_Driver/Src/stm32f1xx_hal_pwr.c **** }
 593              		.loc 1 531 1 is_stmt 0 view .LVU104
 594 000a 7047     		bx	lr
 595              	.L47:
ARM GAS  C:\Users\SRY19_~1\AppData\Local\Temp\ccOeh7I2.s 			page 38


 596              		.align	2
 597              	.L46:
 598 000c 00ED00E0 		.word	-536810240
 599              		.cfi_endproc
 600              	.LFE77:
 602              		.section	.text.HAL_PWR_DisableSleepOnExit,"ax",%progbits
 603              		.align	1
 604              		.global	HAL_PWR_DisableSleepOnExit
 605              		.syntax unified
 606              		.thumb
 607              		.thumb_func
 609              	HAL_PWR_DisableSleepOnExit:
 610              	.LFB78:
 532:../../../auto/rev0/Drivers/STM32F1xx_HAL_Driver/Src/stm32f1xx_hal_pwr.c **** 
 533:../../../auto/rev0/Drivers/STM32F1xx_HAL_Driver/Src/stm32f1xx_hal_pwr.c **** 
 534:../../../auto/rev0/Drivers/STM32F1xx_HAL_Driver/Src/stm32f1xx_hal_pwr.c **** /**
 535:../../../auto/rev0/Drivers/STM32F1xx_HAL_Driver/Src/stm32f1xx_hal_pwr.c ****   * @brief Disables Sleep-On-Exit feature when returning from Handler mode to Thread mode. 
 536:../../../auto/rev0/Drivers/STM32F1xx_HAL_Driver/Src/stm32f1xx_hal_pwr.c ****   * @note Clears SLEEPONEXIT bit of SCR register. When this bit is set, the processor 
 537:../../../auto/rev0/Drivers/STM32F1xx_HAL_Driver/Src/stm32f1xx_hal_pwr.c ****   *       re-enters SLEEP mode when an interruption handling is over.          
 538:../../../auto/rev0/Drivers/STM32F1xx_HAL_Driver/Src/stm32f1xx_hal_pwr.c ****   * @retval None
 539:../../../auto/rev0/Drivers/STM32F1xx_HAL_Driver/Src/stm32f1xx_hal_pwr.c ****   */
 540:../../../auto/rev0/Drivers/STM32F1xx_HAL_Driver/Src/stm32f1xx_hal_pwr.c **** void HAL_PWR_DisableSleepOnExit(void)
 541:../../../auto/rev0/Drivers/STM32F1xx_HAL_Driver/Src/stm32f1xx_hal_pwr.c **** {
 611              		.loc 1 541 1 is_stmt 1 view -0
 612              		.cfi_startproc
 613              		@ args = 0, pretend = 0, frame = 0
 614              		@ frame_needed = 0, uses_anonymous_args = 0
 615              		@ link register save eliminated.
 542:../../../auto/rev0/Drivers/STM32F1xx_HAL_Driver/Src/stm32f1xx_hal_pwr.c ****   /* Clear SLEEPONEXIT bit of Cortex System Control Register */
 543:../../../auto/rev0/Drivers/STM32F1xx_HAL_Driver/Src/stm32f1xx_hal_pwr.c ****   CLEAR_BIT(SCB->SCR, ((uint32_t)SCB_SCR_SLEEPONEXIT_Msk));
 616              		.loc 1 543 3 view .LVU106
 617 0000 024A     		ldr	r2, .L49
 618 0002 1369     		ldr	r3, [r2, #16]
 619 0004 23F00203 		bic	r3, r3, #2
 620 0008 1361     		str	r3, [r2, #16]
 544:../../../auto/rev0/Drivers/STM32F1xx_HAL_Driver/Src/stm32f1xx_hal_pwr.c **** }
 621              		.loc 1 544 1 is_stmt 0 view .LVU107
 622 000a 7047     		bx	lr
 623              	.L50:
 624              		.align	2
 625              	.L49:
 626 000c 00ED00E0 		.word	-536810240
 627              		.cfi_endproc
 628              	.LFE78:
 630              		.section	.text.HAL_PWR_EnableSEVOnPend,"ax",%progbits
 631              		.align	1
 632              		.global	HAL_PWR_EnableSEVOnPend
 633              		.syntax unified
 634              		.thumb
 635              		.thumb_func
 637              	HAL_PWR_EnableSEVOnPend:
 638              	.LFB79:
 545:../../../auto/rev0/Drivers/STM32F1xx_HAL_Driver/Src/stm32f1xx_hal_pwr.c **** 
 546:../../../auto/rev0/Drivers/STM32F1xx_HAL_Driver/Src/stm32f1xx_hal_pwr.c **** 
 547:../../../auto/rev0/Drivers/STM32F1xx_HAL_Driver/Src/stm32f1xx_hal_pwr.c **** /**
 548:../../../auto/rev0/Drivers/STM32F1xx_HAL_Driver/Src/stm32f1xx_hal_pwr.c ****   * @brief Enables CORTEX M3 SEVONPEND bit. 
 549:../../../auto/rev0/Drivers/STM32F1xx_HAL_Driver/Src/stm32f1xx_hal_pwr.c ****   * @note Sets SEVONPEND bit of SCR register. When this bit is set, this causes 
ARM GAS  C:\Users\SRY19_~1\AppData\Local\Temp\ccOeh7I2.s 			page 39


 550:../../../auto/rev0/Drivers/STM32F1xx_HAL_Driver/Src/stm32f1xx_hal_pwr.c ****   *       WFE to wake up when an interrupt moves from inactive to pended.
 551:../../../auto/rev0/Drivers/STM32F1xx_HAL_Driver/Src/stm32f1xx_hal_pwr.c ****   * @retval None
 552:../../../auto/rev0/Drivers/STM32F1xx_HAL_Driver/Src/stm32f1xx_hal_pwr.c ****   */
 553:../../../auto/rev0/Drivers/STM32F1xx_HAL_Driver/Src/stm32f1xx_hal_pwr.c **** void HAL_PWR_EnableSEVOnPend(void)
 554:../../../auto/rev0/Drivers/STM32F1xx_HAL_Driver/Src/stm32f1xx_hal_pwr.c **** {
 639              		.loc 1 554 1 is_stmt 1 view -0
 640              		.cfi_startproc
 641              		@ args = 0, pretend = 0, frame = 0
 642              		@ frame_needed = 0, uses_anonymous_args = 0
 643              		@ link register save eliminated.
 555:../../../auto/rev0/Drivers/STM32F1xx_HAL_Driver/Src/stm32f1xx_hal_pwr.c ****   /* Set SEVONPEND bit of Cortex System Control Register */
 556:../../../auto/rev0/Drivers/STM32F1xx_HAL_Driver/Src/stm32f1xx_hal_pwr.c ****   SET_BIT(SCB->SCR, ((uint32_t)SCB_SCR_SEVONPEND_Msk));
 644              		.loc 1 556 3 view .LVU109
 645 0000 024A     		ldr	r2, .L52
 646 0002 1369     		ldr	r3, [r2, #16]
 647 0004 43F01003 		orr	r3, r3, #16
 648 0008 1361     		str	r3, [r2, #16]
 557:../../../auto/rev0/Drivers/STM32F1xx_HAL_Driver/Src/stm32f1xx_hal_pwr.c **** }
 649              		.loc 1 557 1 is_stmt 0 view .LVU110
 650 000a 7047     		bx	lr
 651              	.L53:
 652              		.align	2
 653              	.L52:
 654 000c 00ED00E0 		.word	-536810240
 655              		.cfi_endproc
 656              	.LFE79:
 658              		.section	.text.HAL_PWR_DisableSEVOnPend,"ax",%progbits
 659              		.align	1
 660              		.global	HAL_PWR_DisableSEVOnPend
 661              		.syntax unified
 662              		.thumb
 663              		.thumb_func
 665              	HAL_PWR_DisableSEVOnPend:
 666              	.LFB80:
 558:../../../auto/rev0/Drivers/STM32F1xx_HAL_Driver/Src/stm32f1xx_hal_pwr.c **** 
 559:../../../auto/rev0/Drivers/STM32F1xx_HAL_Driver/Src/stm32f1xx_hal_pwr.c **** 
 560:../../../auto/rev0/Drivers/STM32F1xx_HAL_Driver/Src/stm32f1xx_hal_pwr.c **** /**
 561:../../../auto/rev0/Drivers/STM32F1xx_HAL_Driver/Src/stm32f1xx_hal_pwr.c ****   * @brief Disables CORTEX M3 SEVONPEND bit. 
 562:../../../auto/rev0/Drivers/STM32F1xx_HAL_Driver/Src/stm32f1xx_hal_pwr.c ****   * @note Clears SEVONPEND bit of SCR register. When this bit is set, this causes 
 563:../../../auto/rev0/Drivers/STM32F1xx_HAL_Driver/Src/stm32f1xx_hal_pwr.c ****   *       WFE to wake up when an interrupt moves from inactive to pended.         
 564:../../../auto/rev0/Drivers/STM32F1xx_HAL_Driver/Src/stm32f1xx_hal_pwr.c ****   * @retval None
 565:../../../auto/rev0/Drivers/STM32F1xx_HAL_Driver/Src/stm32f1xx_hal_pwr.c ****   */
 566:../../../auto/rev0/Drivers/STM32F1xx_HAL_Driver/Src/stm32f1xx_hal_pwr.c **** void HAL_PWR_DisableSEVOnPend(void)
 567:../../../auto/rev0/Drivers/STM32F1xx_HAL_Driver/Src/stm32f1xx_hal_pwr.c **** {
 667              		.loc 1 567 1 is_stmt 1 view -0
 668              		.cfi_startproc
 669              		@ args = 0, pretend = 0, frame = 0
 670              		@ frame_needed = 0, uses_anonymous_args = 0
 671              		@ link register save eliminated.
 568:../../../auto/rev0/Drivers/STM32F1xx_HAL_Driver/Src/stm32f1xx_hal_pwr.c ****   /* Clear SEVONPEND bit of Cortex System Control Register */
 569:../../../auto/rev0/Drivers/STM32F1xx_HAL_Driver/Src/stm32f1xx_hal_pwr.c ****   CLEAR_BIT(SCB->SCR, ((uint32_t)SCB_SCR_SEVONPEND_Msk));
 672              		.loc 1 569 3 view .LVU112
 673 0000 024A     		ldr	r2, .L55
 674 0002 1369     		ldr	r3, [r2, #16]
 675 0004 23F01003 		bic	r3, r3, #16
 676 0008 1361     		str	r3, [r2, #16]
 570:../../../auto/rev0/Drivers/STM32F1xx_HAL_Driver/Src/stm32f1xx_hal_pwr.c **** }
ARM GAS  C:\Users\SRY19_~1\AppData\Local\Temp\ccOeh7I2.s 			page 40


 677              		.loc 1 570 1 is_stmt 0 view .LVU113
 678 000a 7047     		bx	lr
 679              	.L56:
 680              		.align	2
 681              	.L55:
 682 000c 00ED00E0 		.word	-536810240
 683              		.cfi_endproc
 684              	.LFE80:
 686              		.section	.text.HAL_PWR_PVDCallback,"ax",%progbits
 687              		.align	1
 688              		.weak	HAL_PWR_PVDCallback
 689              		.syntax unified
 690              		.thumb
 691              		.thumb_func
 693              	HAL_PWR_PVDCallback:
 694              	.LFB82:
 571:../../../auto/rev0/Drivers/STM32F1xx_HAL_Driver/Src/stm32f1xx_hal_pwr.c **** 
 572:../../../auto/rev0/Drivers/STM32F1xx_HAL_Driver/Src/stm32f1xx_hal_pwr.c **** 
 573:../../../auto/rev0/Drivers/STM32F1xx_HAL_Driver/Src/stm32f1xx_hal_pwr.c **** 
 574:../../../auto/rev0/Drivers/STM32F1xx_HAL_Driver/Src/stm32f1xx_hal_pwr.c **** /**
 575:../../../auto/rev0/Drivers/STM32F1xx_HAL_Driver/Src/stm32f1xx_hal_pwr.c ****   * @brief  This function handles the PWR PVD interrupt request.
 576:../../../auto/rev0/Drivers/STM32F1xx_HAL_Driver/Src/stm32f1xx_hal_pwr.c ****   * @note   This API should be called under the PVD_IRQHandler().
 577:../../../auto/rev0/Drivers/STM32F1xx_HAL_Driver/Src/stm32f1xx_hal_pwr.c ****   * @retval None
 578:../../../auto/rev0/Drivers/STM32F1xx_HAL_Driver/Src/stm32f1xx_hal_pwr.c ****   */
 579:../../../auto/rev0/Drivers/STM32F1xx_HAL_Driver/Src/stm32f1xx_hal_pwr.c **** void HAL_PWR_PVD_IRQHandler(void)
 580:../../../auto/rev0/Drivers/STM32F1xx_HAL_Driver/Src/stm32f1xx_hal_pwr.c **** {
 581:../../../auto/rev0/Drivers/STM32F1xx_HAL_Driver/Src/stm32f1xx_hal_pwr.c ****   /* Check PWR exti flag */
 582:../../../auto/rev0/Drivers/STM32F1xx_HAL_Driver/Src/stm32f1xx_hal_pwr.c ****   if(__HAL_PWR_PVD_EXTI_GET_FLAG() != RESET)
 583:../../../auto/rev0/Drivers/STM32F1xx_HAL_Driver/Src/stm32f1xx_hal_pwr.c ****   {
 584:../../../auto/rev0/Drivers/STM32F1xx_HAL_Driver/Src/stm32f1xx_hal_pwr.c ****     /* PWR PVD interrupt user callback */
 585:../../../auto/rev0/Drivers/STM32F1xx_HAL_Driver/Src/stm32f1xx_hal_pwr.c ****     HAL_PWR_PVDCallback();
 586:../../../auto/rev0/Drivers/STM32F1xx_HAL_Driver/Src/stm32f1xx_hal_pwr.c **** 
 587:../../../auto/rev0/Drivers/STM32F1xx_HAL_Driver/Src/stm32f1xx_hal_pwr.c ****     /* Clear PWR Exti pending bit */
 588:../../../auto/rev0/Drivers/STM32F1xx_HAL_Driver/Src/stm32f1xx_hal_pwr.c ****     __HAL_PWR_PVD_EXTI_CLEAR_FLAG();
 589:../../../auto/rev0/Drivers/STM32F1xx_HAL_Driver/Src/stm32f1xx_hal_pwr.c ****   }
 590:../../../auto/rev0/Drivers/STM32F1xx_HAL_Driver/Src/stm32f1xx_hal_pwr.c **** }
 591:../../../auto/rev0/Drivers/STM32F1xx_HAL_Driver/Src/stm32f1xx_hal_pwr.c **** 
 592:../../../auto/rev0/Drivers/STM32F1xx_HAL_Driver/Src/stm32f1xx_hal_pwr.c **** /**
 593:../../../auto/rev0/Drivers/STM32F1xx_HAL_Driver/Src/stm32f1xx_hal_pwr.c ****   * @brief  PWR PVD interrupt callback
 594:../../../auto/rev0/Drivers/STM32F1xx_HAL_Driver/Src/stm32f1xx_hal_pwr.c ****   * @retval None
 595:../../../auto/rev0/Drivers/STM32F1xx_HAL_Driver/Src/stm32f1xx_hal_pwr.c ****   */
 596:../../../auto/rev0/Drivers/STM32F1xx_HAL_Driver/Src/stm32f1xx_hal_pwr.c **** __weak void HAL_PWR_PVDCallback(void)
 597:../../../auto/rev0/Drivers/STM32F1xx_HAL_Driver/Src/stm32f1xx_hal_pwr.c **** {
 695              		.loc 1 597 1 is_stmt 1 view -0
 696              		.cfi_startproc
 697              		@ args = 0, pretend = 0, frame = 0
 698              		@ frame_needed = 0, uses_anonymous_args = 0
 699              		@ link register save eliminated.
 598:../../../auto/rev0/Drivers/STM32F1xx_HAL_Driver/Src/stm32f1xx_hal_pwr.c ****   /* NOTE : This function Should not be modified, when the callback is needed,
 599:../../../auto/rev0/Drivers/STM32F1xx_HAL_Driver/Src/stm32f1xx_hal_pwr.c ****             the HAL_PWR_PVDCallback could be implemented in the user file
 600:../../../auto/rev0/Drivers/STM32F1xx_HAL_Driver/Src/stm32f1xx_hal_pwr.c ****    */ 
 601:../../../auto/rev0/Drivers/STM32F1xx_HAL_Driver/Src/stm32f1xx_hal_pwr.c **** }
 700              		.loc 1 601 1 view .LVU115
 701 0000 7047     		bx	lr
 702              		.cfi_endproc
 703              	.LFE82:
 705              		.section	.text.HAL_PWR_PVD_IRQHandler,"ax",%progbits
ARM GAS  C:\Users\SRY19_~1\AppData\Local\Temp\ccOeh7I2.s 			page 41


 706              		.align	1
 707              		.global	HAL_PWR_PVD_IRQHandler
 708              		.syntax unified
 709              		.thumb
 710              		.thumb_func
 712              	HAL_PWR_PVD_IRQHandler:
 713              	.LFB81:
 580:../../../auto/rev0/Drivers/STM32F1xx_HAL_Driver/Src/stm32f1xx_hal_pwr.c ****   /* Check PWR exti flag */
 714              		.loc 1 580 1 view -0
 715              		.cfi_startproc
 716              		@ args = 0, pretend = 0, frame = 0
 717              		@ frame_needed = 0, uses_anonymous_args = 0
 718 0000 08B5     		push	{r3, lr}
 719              	.LCFI1:
 720              		.cfi_def_cfa_offset 8
 721              		.cfi_offset 3, -8
 722              		.cfi_offset 14, -4
 582:../../../auto/rev0/Drivers/STM32F1xx_HAL_Driver/Src/stm32f1xx_hal_pwr.c ****   {
 723              		.loc 1 582 3 view .LVU117
 582:../../../auto/rev0/Drivers/STM32F1xx_HAL_Driver/Src/stm32f1xx_hal_pwr.c ****   {
 724              		.loc 1 582 6 is_stmt 0 view .LVU118
 725 0002 064B     		ldr	r3, .L62
 726 0004 5B69     		ldr	r3, [r3, #20]
 582:../../../auto/rev0/Drivers/STM32F1xx_HAL_Driver/Src/stm32f1xx_hal_pwr.c ****   {
 727              		.loc 1 582 5 view .LVU119
 728 0006 13F4803F 		tst	r3, #65536
 729 000a 00D1     		bne	.L61
 730              	.L58:
 590:../../../auto/rev0/Drivers/STM32F1xx_HAL_Driver/Src/stm32f1xx_hal_pwr.c **** 
 731              		.loc 1 590 1 view .LVU120
 732 000c 08BD     		pop	{r3, pc}
 733              	.L61:
 585:../../../auto/rev0/Drivers/STM32F1xx_HAL_Driver/Src/stm32f1xx_hal_pwr.c **** 
 734              		.loc 1 585 5 is_stmt 1 view .LVU121
 735 000e FFF7FEFF 		bl	HAL_PWR_PVDCallback
 736              	.LVL11:
 588:../../../auto/rev0/Drivers/STM32F1xx_HAL_Driver/Src/stm32f1xx_hal_pwr.c ****   }
 737              		.loc 1 588 5 view .LVU122
 738 0012 024B     		ldr	r3, .L62
 739 0014 4FF48032 		mov	r2, #65536
 740 0018 5A61     		str	r2, [r3, #20]
 590:../../../auto/rev0/Drivers/STM32F1xx_HAL_Driver/Src/stm32f1xx_hal_pwr.c **** 
 741              		.loc 1 590 1 is_stmt 0 view .LVU123
 742 001a F7E7     		b	.L58
 743              	.L63:
 744              		.align	2
 745              	.L62:
 746 001c 00040140 		.word	1073808384
 747              		.cfi_endproc
 748              	.LFE81:
 750              		.text
 751              	.Letext0:
 752              		.file 3 "c:\\program files (x86)\\gnu arm embedded toolchain\\10 2021.10\\arm-none-eabi\\include\\
 753              		.file 4 "c:\\program files (x86)\\gnu arm embedded toolchain\\10 2021.10\\arm-none-eabi\\include\\
 754              		.file 5 "../../../auto/rev0/Drivers/CMSIS/Include/core_cm3.h"
 755              		.file 6 "../../../auto/rev0/Drivers/CMSIS/Device/ST/STM32F1xx/Include/stm32f103xb.h"
 756              		.file 7 "../../../auto/rev0/Drivers/CMSIS/Device/ST/STM32F1xx/Include/stm32f1xx.h"
ARM GAS  C:\Users\SRY19_~1\AppData\Local\Temp\ccOeh7I2.s 			page 42


 757              		.file 8 "../../../auto/rev0/Drivers/STM32F1xx_HAL_Driver/Inc/stm32f1xx_hal_pwr.h"
ARM GAS  C:\Users\SRY19_~1\AppData\Local\Temp\ccOeh7I2.s 			page 43

